
rts.elf:     file format elf32-littlearm


Disassembly of section .text:

80000000 <_start>:
80000000:	e59fd054 	ldr	r13, [pc, #84]	; 8000005c <loop+0x4>
80000004:	e24d1901 	sub	r1, r13, #16384	; 0x4000
80000008:	e3a0201b 	mov	r2, #27
8000000c:	e12ff002 	msr	CPSR_fsxc, r2
80000010:	e1a0d001 	mov	r13, r1
80000014:	e24d1901 	sub	r1, r13, #16384	; 0x4000
80000018:	e3a02012 	mov	r2, #18
8000001c:	e12ff002 	msr	CPSR_fsxc, r2
80000020:	e1a0d001 	mov	r13, r1
80000024:	e24d1901 	sub	r1, r13, #16384	; 0x4000
80000028:	e3a0201f 	mov	r2, #31
8000002c:	e12ff002 	msr	CPSR_fsxc, r2
80000030:	e1a0d001 	mov	r13, r1
80000034:	e24d1901 	sub	r1, r13, #16384	; 0x4000
80000038:	e59f0020 	ldr	r0, [pc, #32]	; 80000060 <loop+0x8>
8000003c:	e59f1020 	ldr	r1, [pc, #32]	; 80000064 <loop+0xc>
80000040:	e0811000 	add	r1, r1, r0
80000044:	e3a02000 	mov	r2, #0
80000048:	e1500001 	cmp	r0, r1
8000004c:	b4802004 	strlt	r2, [r0], #4
80000050:	bafffffc 	blt	80000048 <_start+0x48>
80000054:	ea001c24 	b	800070ec <main>

80000058 <loop>:
80000058:	eafffffe 	b	80000058 <loop>
8000005c:	4030cdfc 	ldrshtmi	r12, [r0], -r12
80000060:	80008000 	andhi	r8, r0, r0
80000064:	00015111 	andeq	r5, r1, r1, lsl r1

80000068 <irq_init>:
80000068:	e59f0334 	ldr	r0, [pc, #820]	; 800003a4 <irq_vector+0x200>
8000006c:	e3a01002 	mov	r1, #2
80000070:	e5801010 	str	r1, [r0, #16]
80000074:	e5901014 	ldr	r1, [r0, #20]
80000078:	e2011001 	and	r1, r1, #1
8000007c:	e3510001 	cmp	r1, #1
80000080:	1afffffb 	bne	80000074 <irq_init+0xc>
80000084:	e3a01a01 	mov	r1, #4096	; 0x1000
80000088:	e5801088 	str	r1, [r0, #136]	; 0x88
8000008c:	e3a01a02 	mov	r1, #8192	; 0x2000
80000090:	e5801088 	str	r1, [r0, #136]	; 0x88
80000094:	e3a01001 	mov	r1, #1
80000098:	e58010a8 	str	r1, [r0, #168]	; 0xa8
8000009c:	e3a01001 	mov	r1, #1
800000a0:	e58010c8 	str	r1, [r0, #200]	; 0xc8
800000a4:	e3a01c01 	mov	r1, #256	; 0x100
800000a8:	e58010c8 	str	r1, [r0, #200]	; 0xc8
800000ac:	e3a01b02 	mov	r1, #2048	; 0x800
800000b0:	e58010c8 	str	r1, [r0, #200]	; 0xc8
800000b4:	e59f02ec 	ldr	r0, [pc, #748]	; 800003a8 <irq_vector+0x204>
800000b8:	e59f12ec 	ldr	r1, [pc, #748]	; 800003ac <irq_vector+0x208>
800000bc:	e5801000 	str	r1, [r0]
800000c0:	e59f02e8 	ldr	r0, [pc, #744]	; 800003b0 <irq_vector+0x20c>
800000c4:	e59f12e8 	ldr	r1, [pc, #744]	; 800003b4 <irq_vector+0x210>
800000c8:	e5801000 	str	r1, [r0]
800000cc:	f57ff04f 	dsb	sy
800000d0:	e10f1000 	mrs	r1, CPSR
800000d4:	e3c11080 	bic	r1, r1, #128	; 0x80
800000d8:	e121f001 	msr	CPSR_c, r1
800000dc:	e12fff1e 	bx	r14

800000e0 <und_isr>:
800000e0:	e92d5003 	push	{r0, r1, r12, r14}
800000e4:	e14fc000 	mrs	r12, SPSR
800000e8:	e59f02c8 	ldr	r0, [pc, #712]	; 800003b8 <irq_vector+0x214>
800000ec:	e3a01055 	mov	r1, #85	; 0x55
800000f0:	eb000146 	bl	80000610 <uart_tx>
800000f4:	e3a0104e 	mov	r1, #78	; 0x4e
800000f8:	eb000144 	bl	80000610 <uart_tx>
800000fc:	e3a01044 	mov	r1, #68	; 0x44
80000100:	eb000142 	bl	80000610 <uart_tx>
80000104:	e3a0100a 	mov	r1, #10
80000108:	eb000140 	bl	80000610 <uart_tx>
8000010c:	e169f00c 	msr	SPSR_fc, r12
80000110:	e8fd9003 	ldm	r13!, {r0, r1, r12, r15}^

80000114 <irq_isr>:
80000114:	e92d400f 	push	{r0, r1, r2, r3, r14}
80000118:	e14fc000 	mrs	r12, SPSR
8000011c:	e92d1000 	stmfd	r13!, {r12}
80000120:	e10f1000 	mrs	r1, CPSR
80000124:	e3811080 	orr	r1, r1, #128	; 0x80
80000128:	e121f001 	msr	CPSR_c, r1
8000012c:	e59f0270 	ldr	r0, [pc, #624]	; 800003a4 <irq_vector+0x200>
80000130:	e5901040 	ldr	r1, [r0, #64]	; 0x40
80000134:	e3510080 	cmp	r1, #128	; 0x80
80000138:	aa000002 	bge	80000148 <irq_isr_exit>
8000013c:	e28f2060 	add	r2, r15, #96	; 0x60
80000140:	e7922101 	ldr	r2, [r2, r1, lsl #2]
80000144:	e12fff32 	blx	r2

80000148 <irq_isr_exit>:
80000148:	e59f0254 	ldr	r0, [pc, #596]	; 800003a4 <irq_vector+0x200>
8000014c:	e3a01001 	mov	r1, #1
80000150:	e5801048 	str	r1, [r0, #72]	; 0x48
80000154:	f57ff04f 	dsb	sy
80000158:	e10f1000 	mrs	r1, CPSR
8000015c:	e3c11080 	bic	r1, r1, #128	; 0x80
80000160:	e121f001 	msr	CPSR_c, r1
80000164:	e8bd1000 	ldmfd	r13!, {r12}
80000168:	e169f00c 	msr	SPSR_fc, r12
8000016c:	e8bd400f 	pop	{r0, r1, r2, r3, r14}
80000170:	e25ef004 	subs	r15, r14, #4

80000174 <IntMasterIRQEnable>:
80000174:	e10f0000 	mrs	r0, CPSR
80000178:	e3c00080 	bic	r0, r0, #128	; 0x80
8000017c:	e121f000 	msr	CPSR_c, r0
80000180:	e12fff1e 	bx	r14

80000184 <IntMasterIRQDisable>:
80000184:	e10f0000 	mrs	r0, CPSR
80000188:	e3800080 	orr	r0, r0, #128	; 0x80
8000018c:	e121f000 	msr	CPSR_c, r0
80000190:	e12fff1e 	bx	r14

80000194 <IntMasterStatusGet>:
80000194:	e10f0000 	mrs	r0, CPSR
80000198:	e20000c0 	and	r0, r0, #192	; 0xc0
8000019c:	e12fff1e 	bx	r14

800001a0 <def>:
800001a0:	e12fff1e 	bx	r14

800001a4 <irq_vector>:
800001a4:	800001a0 	andhi	r0, r0, r0, lsr #3
800001a8:	800001a0 	andhi	r0, r0, r0, lsr #3
800001ac:	800001a0 	andhi	r0, r0, r0, lsr #3
800001b0:	800001a0 	andhi	r0, r0, r0, lsr #3
800001b4:	800001a0 	andhi	r0, r0, r0, lsr #3
800001b8:	800001a0 	andhi	r0, r0, r0, lsr #3
800001bc:	800001a0 	andhi	r0, r0, r0, lsr #3
800001c0:	800001a0 	andhi	r0, r0, r0, lsr #3
800001c4:	800001a0 	andhi	r0, r0, r0, lsr #3
800001c8:	800001a0 	andhi	r0, r0, r0, lsr #3
800001cc:	800001a0 	andhi	r0, r0, r0, lsr #3
800001d0:	800001a0 	andhi	r0, r0, r0, lsr #3
800001d4:	80006b7c 	andhi	r6, r0, r12, ror r11
800001d8:	80006c40 	andhi	r6, r0, r0, asr #24
800001dc:	800001a0 	andhi	r0, r0, r0, lsr #3
800001e0:	800001a0 	andhi	r0, r0, r0, lsr #3
800001e4:	800001a0 	andhi	r0, r0, r0, lsr #3
800001e8:	800001a0 	andhi	r0, r0, r0, lsr #3
800001ec:	800001a0 	andhi	r0, r0, r0, lsr #3
800001f0:	800001a0 	andhi	r0, r0, r0, lsr #3
800001f4:	800001a0 	andhi	r0, r0, r0, lsr #3
800001f8:	800001a0 	andhi	r0, r0, r0, lsr #3
800001fc:	800001a0 	andhi	r0, r0, r0, lsr #3
80000200:	800001a0 	andhi	r0, r0, r0, lsr #3
80000204:	800001a0 	andhi	r0, r0, r0, lsr #3
80000208:	800001a0 	andhi	r0, r0, r0, lsr #3
8000020c:	800001a0 	andhi	r0, r0, r0, lsr #3
80000210:	800001a0 	andhi	r0, r0, r0, lsr #3
80000214:	800001a0 	andhi	r0, r0, r0, lsr #3
80000218:	800001a0 	andhi	r0, r0, r0, lsr #3
8000021c:	800001a0 	andhi	r0, r0, r0, lsr #3
80000220:	800001a0 	andhi	r0, r0, r0, lsr #3
80000224:	8000041c 	andhi	r0, r0, r12, lsl r4
80000228:	800001a0 	andhi	r0, r0, r0, lsr #3
8000022c:	800001a0 	andhi	r0, r0, r0, lsr #3
80000230:	800001a0 	andhi	r0, r0, r0, lsr #3
80000234:	800001a0 	andhi	r0, r0, r0, lsr #3
80000238:	800001a0 	andhi	r0, r0, r0, lsr #3
8000023c:	800001a0 	andhi	r0, r0, r0, lsr #3
80000240:	800001a0 	andhi	r0, r0, r0, lsr #3
80000244:	800001a0 	andhi	r0, r0, r0, lsr #3
80000248:	800001a0 	andhi	r0, r0, r0, lsr #3
8000024c:	800001a0 	andhi	r0, r0, r0, lsr #3
80000250:	800001a0 	andhi	r0, r0, r0, lsr #3
80000254:	800001a0 	andhi	r0, r0, r0, lsr #3
80000258:	800001a0 	andhi	r0, r0, r0, lsr #3
8000025c:	800001a0 	andhi	r0, r0, r0, lsr #3
80000260:	800001a0 	andhi	r0, r0, r0, lsr #3
80000264:	800001a0 	andhi	r0, r0, r0, lsr #3
80000268:	800001a0 	andhi	r0, r0, r0, lsr #3
8000026c:	800001a0 	andhi	r0, r0, r0, lsr #3
80000270:	800001a0 	andhi	r0, r0, r0, lsr #3
80000274:	800001a0 	andhi	r0, r0, r0, lsr #3
80000278:	800001a0 	andhi	r0, r0, r0, lsr #3
8000027c:	800001a0 	andhi	r0, r0, r0, lsr #3
80000280:	800001a0 	andhi	r0, r0, r0, lsr #3
80000284:	800001a0 	andhi	r0, r0, r0, lsr #3
80000288:	800001a0 	andhi	r0, r0, r0, lsr #3
8000028c:	800001a0 	andhi	r0, r0, r0, lsr #3
80000290:	800001a0 	andhi	r0, r0, r0, lsr #3
80000294:	800001a0 	andhi	r0, r0, r0, lsr #3
80000298:	800001a0 	andhi	r0, r0, r0, lsr #3
8000029c:	800001a0 	andhi	r0, r0, r0, lsr #3
800002a0:	800001a0 	andhi	r0, r0, r0, lsr #3
800002a4:	80006e70 	andhi	r6, r0, r0, ror r14
800002a8:	800001a0 	andhi	r0, r0, r0, lsr #3
800002ac:	800001a0 	andhi	r0, r0, r0, lsr #3
800002b0:	800001a0 	andhi	r0, r0, r0, lsr #3
800002b4:	800001a0 	andhi	r0, r0, r0, lsr #3
800002b8:	800001a0 	andhi	r0, r0, r0, lsr #3
800002bc:	800001a0 	andhi	r0, r0, r0, lsr #3
800002c0:	800001a0 	andhi	r0, r0, r0, lsr #3
800002c4:	80000584 	andhi	r0, r0, r4, lsl #11
800002c8:	800001a0 	andhi	r0, r0, r0, lsr #3
800002cc:	800001a0 	andhi	r0, r0, r0, lsr #3
800002d0:	80000abc 			; <UNDEFINED> instruction: 0x80000abc
800002d4:	800001a0 	andhi	r0, r0, r0, lsr #3
800002d8:	800001a0 	andhi	r0, r0, r0, lsr #3
800002dc:	800001a0 	andhi	r0, r0, r0, lsr #3
800002e0:	800001a0 	andhi	r0, r0, r0, lsr #3
800002e4:	800001a0 	andhi	r0, r0, r0, lsr #3
800002e8:	800001a0 	andhi	r0, r0, r0, lsr #3
800002ec:	800001a0 	andhi	r0, r0, r0, lsr #3
800002f0:	800001a0 	andhi	r0, r0, r0, lsr #3
800002f4:	800001a0 	andhi	r0, r0, r0, lsr #3
800002f8:	800001a0 	andhi	r0, r0, r0, lsr #3
800002fc:	800001a0 	andhi	r0, r0, r0, lsr #3
80000300:	800001a0 	andhi	r0, r0, r0, lsr #3
80000304:	800001a0 	andhi	r0, r0, r0, lsr #3
80000308:	800001a0 	andhi	r0, r0, r0, lsr #3
8000030c:	800001a0 	andhi	r0, r0, r0, lsr #3
80000310:	800001a0 	andhi	r0, r0, r0, lsr #3
80000314:	800001a0 	andhi	r0, r0, r0, lsr #3
80000318:	800001a0 	andhi	r0, r0, r0, lsr #3
8000031c:	800001a0 	andhi	r0, r0, r0, lsr #3
80000320:	800001a0 	andhi	r0, r0, r0, lsr #3
80000324:	800001a0 	andhi	r0, r0, r0, lsr #3
80000328:	800001a0 	andhi	r0, r0, r0, lsr #3
8000032c:	800001a0 	andhi	r0, r0, r0, lsr #3
80000330:	800001a0 	andhi	r0, r0, r0, lsr #3
80000334:	800001a0 	andhi	r0, r0, r0, lsr #3
80000338:	800001a0 	andhi	r0, r0, r0, lsr #3
8000033c:	800001a0 	andhi	r0, r0, r0, lsr #3
80000340:	800001a0 	andhi	r0, r0, r0, lsr #3
80000344:	800001a0 	andhi	r0, r0, r0, lsr #3
80000348:	800001a0 	andhi	r0, r0, r0, lsr #3
8000034c:	800001a0 	andhi	r0, r0, r0, lsr #3
80000350:	800001a0 	andhi	r0, r0, r0, lsr #3
80000354:	800001a0 	andhi	r0, r0, r0, lsr #3
80000358:	800001a0 	andhi	r0, r0, r0, lsr #3
8000035c:	800001a0 	andhi	r0, r0, r0, lsr #3
80000360:	800001a0 	andhi	r0, r0, r0, lsr #3
80000364:	800001a0 	andhi	r0, r0, r0, lsr #3
80000368:	800001a0 	andhi	r0, r0, r0, lsr #3
8000036c:	800001a0 	andhi	r0, r0, r0, lsr #3
80000370:	800001a0 	andhi	r0, r0, r0, lsr #3
80000374:	800001a0 	andhi	r0, r0, r0, lsr #3
80000378:	800001a0 	andhi	r0, r0, r0, lsr #3
8000037c:	800001a0 	andhi	r0, r0, r0, lsr #3
80000380:	800001a0 	andhi	r0, r0, r0, lsr #3
80000384:	800001a0 	andhi	r0, r0, r0, lsr #3
80000388:	800001a0 	andhi	r0, r0, r0, lsr #3
8000038c:	800001a0 	andhi	r0, r0, r0, lsr #3
80000390:	800001a0 	andhi	r0, r0, r0, lsr #3
80000394:	800001a0 	andhi	r0, r0, r0, lsr #3
80000398:	800001a0 	andhi	r0, r0, r0, lsr #3
8000039c:	800001a0 	andhi	r0, r0, r0, lsr #3
800003a0:	800001a0 	andhi	r0, r0, r0, lsr #3
800003a4:	48200000 	stmdami	r0!, {}	; <UNPREDICTABLE>
800003a8:	4030ce24 	eorsmi	r12, r0, r4, lsr #28
800003ac:	800000e0 	andhi	r0, r0, r0, ror #1
800003b0:	4030ce38 	eorsmi	r12, r0, r8, lsr r14
800003b4:	80000114 	andhi	r0, r0, r4, lsl r1
800003b8:	44e09000 	strbtmi	r9, [r0], #0

800003bc <gpio_init>:
800003bc:	e59f2138 	ldr	r2, [pc, #312]	; 800004fc <blinkloop+0x70>
800003c0:	e59f3138 	ldr	r3, [pc, #312]	; 80000500 <blinkloop+0x74>
800003c4:	e58230ac 	str	r3, [r2, #172]	; 0xac
800003c8:	e58230b0 	str	r3, [r2, #176]	; 0xb0
800003cc:	e1e01001 	mvn	r1, r1
800003d0:	e5801134 	str	r1, [r0, #308]	; 0x134
800003d4:	e59f2128 	ldr	r2, [pc, #296]	; 80000504 <blinkloop+0x78>
800003d8:	e3a03002 	mov	r3, #2
800003dc:	e5823010 	str	r3, [r2, #16]
800003e0:	e5923114 	ldr	r3, [r2, #276]	; 0x114
800003e4:	e3130001 	tst	r3, #1
800003e8:	0afffffc 	beq	800003e0 <gpio_init+0x24>
800003ec:	e3a03010 	mov	r3, #16
800003f0:	e5823010 	str	r3, [r2, #16]
800003f4:	e3a03000 	mov	r3, #0
800003f8:	e5823134 	str	r3, [r2, #308]	; 0x134
800003fc:	e5823034 	str	r3, [r2, #52]	; 0x34
80000400:	e5823150 	str	r3, [r2, #336]	; 0x150
80000404:	e5823148 	str	r3, [r2, #328]	; 0x148
80000408:	e582314c 	str	r3, [r2, #332]	; 0x14c
8000040c:	e3a03010 	mov	r3, #16
80000410:	e5823154 	str	r3, [r2, #340]	; 0x154
80000414:	e3a00000 	mov	r0, #0
80000418:	e12fff1e 	bx	r14

8000041c <gpio_isr>:
8000041c:	e59f00e0 	ldr	r0, [pc, #224]	; 80000504 <blinkloop+0x78>
80000420:	e3a01c01 	mov	r1, #256	; 0x100
80000424:	e580102c 	str	r1, [r0, #44]	; 0x2c
80000428:	e5901138 	ldr	r1, [r0, #312]	; 0x138
8000042c:	e3110c01 	tst	r1, #256	; 0x100
80000430:	e59f00d0 	ldr	r0, [pc, #208]	; 80000508 <blinkloop+0x7c>
80000434:	e3a01501 	mov	r1, #4194304	; 0x400000
80000438:	0a000001 	beq	80000444 <gpio_isr+0x28>
8000043c:	e5801190 	str	r1, [r0, #400]	; 0x190
80000440:	ea000000 	b	80000448 <gpio_isr_exit>
80000444:	e5801194 	str	r1, [r0, #404]	; 0x194

80000448 <gpio_isr_exit>:
80000448:	e59f00bc 	ldr	r0, [pc, #188]	; 8000050c <blinkloop+0x80>
8000044c:	e5901000 	ldr	r1, [r0]
80000450:	e2811001 	add	r1, r1, #1
80000454:	e5801000 	str	r1, [r0]
80000458:	e12fff1e 	bx	r14

8000045c <gpio_irq_count>:
8000045c:	00000000 	andeq	r0, r0, r0

80000460 <gpio_on>:
80000460:	e5801194 	str	r1, [r0, #404]	; 0x194
80000464:	e12fff1e 	bx	r14

80000468 <gpio_off>:
80000468:	e5801190 	str	r1, [r0, #400]	; 0x190
8000046c:	e12fff1e 	bx	r14

80000470 <gpio_read>:
80000470:	e5901138 	ldr	r1, [r0, #312]	; 0x138
80000474:	e1a00001 	mov	r0, r1
80000478:	e12fff1e 	bx	r14

8000047c <blink32>:
8000047c:	e92d401f 	push	{r0, r1, r2, r3, r4, r14}
80000480:	e1a04000 	mov	r4, r0
80000484:	e3a03008 	mov	r3, #8
80000488:	e59f1078 	ldr	r1, [pc, #120]	; 80000508 <blinkloop+0x7c>

8000048c <blinkloop>:
8000048c:	e3a0061e 	mov	r0, #31457280	; 0x1e00000
80000490:	e5810190 	str	r0, [r1, #400]	; 0x190
80000494:	e3a02601 	mov	r2, #1048576	; 0x100000
80000498:	e2422001 	sub	r2, r2, #1
8000049c:	e3520000 	cmp	r2, #0
800004a0:	1afffffc 	bne	80000498 <blinkloop+0xc>
800004a4:	e5810194 	str	r0, [r1, #404]	; 0x194
800004a8:	e3a02702 	mov	r2, #524288	; 0x80000
800004ac:	e2422001 	sub	r2, r2, #1
800004b0:	e3520000 	cmp	r2, #0
800004b4:	1afffffc 	bne	800004ac <blinkloop+0x20>
800004b8:	e5810190 	str	r0, [r1, #400]	; 0x190
800004bc:	e3a02601 	mov	r2, #1048576	; 0x100000
800004c0:	e2422001 	sub	r2, r2, #1
800004c4:	e3520000 	cmp	r2, #0
800004c8:	1afffffc 	bne	800004c0 <blinkloop+0x34>
800004cc:	e204000f 	and	r0, r4, #15
800004d0:	e1a04224 	lsr	r4, r4, #4
800004d4:	e1a00a80 	lsl	r0, r0, #21
800004d8:	e5810194 	str	r0, [r1, #404]	; 0x194
800004dc:	e3a02401 	mov	r2, #16777216	; 0x1000000
800004e0:	e2422001 	sub	r2, r2, #1
800004e4:	e3520000 	cmp	r2, #0
800004e8:	1afffffc 	bne	800004e0 <blinkloop+0x54>
800004ec:	e2433001 	sub	r3, r3, #1
800004f0:	e3530000 	cmp	r3, #0
800004f4:	1affffe4 	bne	8000048c <blinkloop>
800004f8:	e8bd801f 	pop	{r0, r1, r2, r3, r4, r15}
800004fc:	44e00000 	strbtmi	r0, [r0], #0
80000500:	00040002 	andeq	r0, r4, r2
80000504:	481ac000 	ldmdami	r10, {r14, r15}
80000508:	4804c000 	stmdami	r4, {r14, r15}
8000050c:	8000045c 	andhi	r0, r0, r12, asr r4

80000510 <uart0_init>:
80000510:	e59f017c 	ldr	r0, [pc, #380]	; 80000694 <nothing+0x4>
80000514:	e3a01002 	mov	r1, #2
80000518:	e5801054 	str	r1, [r0, #84]	; 0x54
8000051c:	e5901058 	ldr	r1, [r0, #88]	; 0x58
80000520:	e3110001 	tst	r1, #1
80000524:	0afffffc 	beq	8000051c <uart0_init+0xc>
80000528:	e3a01008 	mov	r1, #8
8000052c:	e5801054 	str	r1, [r0, #84]	; 0x54
80000530:	e3a01083 	mov	r1, #131	; 0x83
80000534:	e580100c 	str	r1, [r0, #12]
80000538:	e3a0101a 	mov	r1, #26
8000053c:	e5801000 	str	r1, [r0]
80000540:	e3a01010 	mov	r1, #16
80000544:	e5801008 	str	r1, [r0, #8]
80000548:	e3a01057 	mov	r1, #87	; 0x57
8000054c:	e5801008 	str	r1, [r0, #8]
80000550:	e3a01000 	mov	r1, #0
80000554:	e5801008 	str	r1, [r0, #8]
80000558:	e3a01000 	mov	r1, #0
8000055c:	e5801020 	str	r1, [r0, #32]
80000560:	e590100c 	ldr	r1, [r0, #12]
80000564:	e3c11080 	bic	r1, r1, #128	; 0x80
80000568:	e580100c 	str	r1, [r0, #12]
8000056c:	e3a010c8 	mov	r1, #200	; 0xc8
80000570:	e5801040 	str	r1, [r0, #64]	; 0x40
80000574:	e3a01001 	mov	r1, #1
80000578:	e5801004 	str	r1, [r0, #4]
8000057c:	e3a00000 	mov	r0, #0
80000580:	e12fff1e 	bx	r14

80000584 <uart0_isr>:
80000584:	e59f0108 	ldr	r0, [pc, #264]	; 80000694 <nothing+0x4>
80000588:	e5901008 	ldr	r1, [r0, #8]
8000058c:	e3a02000 	mov	r2, #0
80000590:	e5802004 	str	r2, [r0, #4]
80000594:	e201103e 	and	r1, r1, #62	; 0x3e
80000598:	e3510004 	cmp	r1, #4
8000059c:	1a000003 	bne	800005b0 <uart0_isr+0x2c>
800005a0:	e5902000 	ldr	r2, [r0]
800005a4:	e59f10ec 	ldr	r1, [pc, #236]	; 80000698 <nothing+0x8>
800005a8:	e5812000 	str	r2, [r1]
800005ac:	ea000004 	b	800005c4 <uart0_isr_exit>
800005b0:	e3510002 	cmp	r1, #2
800005b4:	1a000002 	bne	800005c4 <uart0_isr_exit>
800005b8:	e59f10dc 	ldr	r1, [pc, #220]	; 8000069c <nothing+0xc>
800005bc:	e5912000 	ldr	r2, [r1]
800005c0:	e5802000 	str	r2, [r0]

800005c4 <uart0_isr_exit>:
800005c4:	e59f20d4 	ldr	r2, [pc, #212]	; 800006a0 <nothing+0x10>
800005c8:	e5921000 	ldr	r1, [r2]
800005cc:	e2811001 	add	r1, r1, #1
800005d0:	e5821000 	str	r1, [r2]
800005d4:	e3a02001 	mov	r2, #1
800005d8:	e5802004 	str	r2, [r0, #4]
800005dc:	e12fff1e 	bx	r14

800005e0 <uart0_irq_count>:
800005e0:	00000000 	andeq	r0, r0, r0

800005e4 <uart0_rbuf>:
800005e4:	00000000 	andeq	r0, r0, r0

800005e8 <uart0_tbuf>:
800005e8:	00000000 	andeq	r0, r0, r0

800005ec <uart_txi>:
800005ec:	e3a01003 	mov	r1, #3
800005f0:	e5801004 	str	r1, [r0, #4]
800005f4:	e12fff1e 	bx	r14

800005f8 <uart_rx>:
800005f8:	e5902014 	ldr	r2, [r0, #20]
800005fc:	e3120001 	tst	r2, #1
80000600:	0afffffc 	beq	800005f8 <uart_rx>
80000604:	e5901000 	ldr	r1, [r0]
80000608:	e1a00001 	mov	r0, r1
8000060c:	e12fff1e 	bx	r14

80000610 <uart_tx>:
80000610:	e5902014 	ldr	r2, [r0, #20]
80000614:	e3120020 	tst	r2, #32
80000618:	0afffffc 	beq	80000610 <uart_tx>
8000061c:	e5801000 	str	r1, [r0]
80000620:	e12fff1e 	bx	r14

80000624 <pinmux>:
80000624:	e59f2078 	ldr	r2, [pc, #120]	; 800006a4 <nothing+0x14>
80000628:	e7821000 	str	r1, [r2, r0]
8000062c:	e12fff1e 	bx	r14

80000630 <hexprint>:
80000630:	e92d401f 	push	{r0, r1, r2, r3, r4, r14}
80000634:	e1a04000 	mov	r4, r0
80000638:	e3a03008 	mov	r3, #8
8000063c:	e59f1050 	ldr	r1, [pc, #80]	; 80000694 <nothing+0x4>

80000640 <hexloop>:
80000640:	e1a04e64 	ror	r4, r4, #28
80000644:	e204000f 	and	r0, r4, #15
80000648:	e350000a 	cmp	r0, #10
8000064c:	b2800030 	addlt	r0, r0, #48	; 0x30
80000650:	a2800037 	addge	r0, r0, #55	; 0x37
80000654:	e5912014 	ldr	r2, [r1, #20]
80000658:	e2022020 	and	r2, r2, #32
8000065c:	e3520020 	cmp	r2, #32
80000660:	1afffffb 	bne	80000654 <hexloop+0x14>
80000664:	e5810000 	str	r0, [r1]
80000668:	e2433001 	sub	r3, r3, #1
8000066c:	e3530000 	cmp	r3, #0
80000670:	1afffff2 	bne	80000640 <hexloop>
80000674:	e3a0000a 	mov	r0, #10
80000678:	e5912014 	ldr	r2, [r1, #20]
8000067c:	e2022020 	and	r2, r2, #32
80000680:	e3520020 	cmp	r2, #32
80000684:	1afffffb 	bne	80000678 <hexloop+0x38>
80000688:	e5810000 	str	r0, [r1]
8000068c:	e8bd801f 	pop	{r0, r1, r2, r3, r4, r15}

80000690 <nothing>:
80000690:	e12fff1e 	bx	r14
80000694:	44e09000 	strbtmi	r9, [r0], #0
80000698:	800005e4 	andhi	r0, r0, r4, ror #11
8000069c:	800005e8 	andhi	r0, r0, r8, ror #11
800006a0:	800005e0 	andhi	r0, r0, r0, ror #11
800006a4:	44e10000 	strbtmi	r0, [r1], #0

800006a8 <mmc0_init>:
800006a8:	e92d4010 	push	{r4, r14}
800006ac:	e59f0394 	ldr	r0, [pc, #916]	; 80000a48 <mmc0_get_resp+0x38>
800006b0:	e590103c 	ldr	r1, [r0, #60]	; 0x3c
800006b4:	e3a02002 	mov	r2, #2
800006b8:	e1811002 	orr	r1, r1, r2
800006bc:	e580103c 	str	r1, [r0, #60]	; 0x3c
800006c0:	e590103c 	ldr	r1, [r0, #60]	; 0x3c
800006c4:	e3510002 	cmp	r1, #2
800006c8:	1afffffc 	bne	800006c0 <mmc0_init+0x18>
800006cc:	e59f0378 	ldr	r0, [pc, #888]	; 80000a4c <mmc0_get_resp+0x3c>
800006d0:	e5901110 	ldr	r1, [r0, #272]	; 0x110
800006d4:	e3e02002 	mvn	r2, #2
800006d8:	e0011002 	and	r1, r1, r2
800006dc:	e3a02002 	mov	r2, #2
800006e0:	e1811002 	orr	r1, r1, r2
800006e4:	e5801110 	str	r1, [r0, #272]	; 0x110
800006e8:	e5901114 	ldr	r1, [r0, #276]	; 0x114
800006ec:	e3510001 	cmp	r1, #1
800006f0:	1afffffc 	bne	800006e8 <mmc0_init+0x40>
800006f4:	e59f0350 	ldr	r0, [pc, #848]	; 80000a4c <mmc0_get_resp+0x3c>
800006f8:	e3a01d09 	mov	r1, #576	; 0x240
800006fc:	e3a02407 	mov	r2, #117440512	; 0x7000000
80000700:	e3a03406 	mov	r3, #100663296	; 0x6000000
80000704:	e7904001 	ldr	r4, [r0, r1]
80000708:	e0033002 	and	r3, r3, r2
8000070c:	e1c44002 	bic	r4, r4, r2
80000710:	e1843003 	orr	r3, r4, r3
80000714:	e7803001 	str	r3, [r0, r1]
80000718:	e3a01e11 	mov	r1, #272	; 0x110
8000071c:	e59f232c 	ldr	r2, [pc, #812]	; 80000a50 <mmc0_get_resp+0x40>
80000720:	e59f332c 	ldr	r3, [pc, #812]	; 80000a54 <mmc0_get_resp+0x44>
80000724:	e7904001 	ldr	r4, [r0, r1]
80000728:	e0033002 	and	r3, r3, r2
8000072c:	e1c44002 	bic	r4, r4, r2
80000730:	e1843003 	orr	r3, r4, r3
80000734:	e7803001 	str	r3, [r0, r1]
80000738:	e3a01f8a 	mov	r1, #552	; 0x228
8000073c:	e3a02401 	mov	r2, #16777216	; 0x1000000
80000740:	e3a03401 	mov	r3, #16777216	; 0x1000000
80000744:	e7904001 	ldr	r4, [r0, r1]
80000748:	e0033002 	and	r3, r3, r2
8000074c:	e1c44002 	bic	r4, r4, r2
80000750:	e1843003 	orr	r3, r4, r3
80000754:	e7803001 	str	r3, [r0, r1]
80000758:	e3a01f4b 	mov	r1, #300	; 0x12c
8000075c:	e3a02020 	mov	r2, #32
80000760:	e3a03000 	mov	r3, #0
80000764:	e7904001 	ldr	r4, [r0, r1]
80000768:	e0033002 	and	r3, r3, r2
8000076c:	e1c44002 	bic	r4, r4, r2
80000770:	e1843003 	orr	r3, r4, r3
80000774:	e7803001 	str	r3, [r0, r1]
80000778:	e3a01f8a 	mov	r1, #552	; 0x228
8000077c:	e3a02001 	mov	r2, #1
80000780:	e3a03001 	mov	r3, #1
80000784:	e7904001 	ldr	r4, [r0, r1]
80000788:	e0033002 	and	r3, r3, r2
8000078c:	e1c44002 	bic	r4, r4, r2
80000790:	e1843003 	orr	r3, r4, r3
80000794:	e7803001 	str	r3, [r0, r1]
80000798:	e3a01f8a 	mov	r1, #552	; 0x228
8000079c:	e3a02c0e 	mov	r2, #3584	; 0xe00
800007a0:	e3a03b03 	mov	r3, #3072	; 0xc00
800007a4:	e7904001 	ldr	r4, [r0, r1]
800007a8:	e0033002 	and	r3, r3, r2
800007ac:	e1c44002 	bic	r4, r4, r2
800007b0:	e1843003 	orr	r3, r4, r3
800007b4:	e7803001 	str	r3, [r0, r1]
800007b8:	e3a01f8a 	mov	r1, #552	; 0x228
800007bc:	e3a02c01 	mov	r2, #256	; 0x100
800007c0:	e3a03c01 	mov	r3, #256	; 0x100
800007c4:	e7904001 	ldr	r4, [r0, r1]
800007c8:	e0033002 	and	r3, r3, r2
800007cc:	e1c44002 	bic	r4, r4, r2
800007d0:	e1843003 	orr	r3, r4, r3
800007d4:	e7803001 	str	r3, [r0, r1]
800007d8:	e5901228 	ldr	r1, [r0, #552]	; 0x228
800007dc:	e2011c01 	and	r1, r1, #256	; 0x100
800007e0:	e3510c01 	cmp	r1, #256	; 0x100
800007e4:	1afffffb 	bne	800007d8 <mmc0_init+0x130>
800007e8:	e3a01f8b 	mov	r1, #556	; 0x22c
800007ec:	e3a02001 	mov	r2, #1
800007f0:	e3a03001 	mov	r3, #1
800007f4:	e7904001 	ldr	r4, [r0, r1]
800007f8:	e0033002 	and	r3, r3, r2
800007fc:	e1c44002 	bic	r4, r4, r2
80000800:	e1843003 	orr	r3, r4, r3
80000804:	e7803001 	str	r3, [r0, r1]
80000808:	e3a01f8b 	mov	r1, #556	; 0x22c
8000080c:	e59f2244 	ldr	r2, [pc, #580]	; 80000a58 <mmc0_get_resp+0x48>
80000810:	e59f3240 	ldr	r3, [pc, #576]	; 80000a58 <mmc0_get_resp+0x48>
80000814:	e7904001 	ldr	r4, [r0, r1]
80000818:	e0033002 	and	r3, r3, r2
8000081c:	e1c44002 	bic	r4, r4, r2
80000820:	e1843003 	orr	r3, r4, r3
80000824:	e7803001 	str	r3, [r0, r1]
80000828:	e3a01f8b 	mov	r1, #556	; 0x22c
8000082c:	e3a02004 	mov	r2, #4
80000830:	e3a03004 	mov	r3, #4
80000834:	e7904001 	ldr	r4, [r0, r1]
80000838:	e0033002 	and	r3, r3, r2
8000083c:	e1c44002 	bic	r4, r4, r2
80000840:	e1843003 	orr	r3, r4, r3
80000844:	e7803001 	str	r3, [r0, r1]
80000848:	e590122c 	ldr	r1, [r0, #556]	; 0x22c
8000084c:	e2011002 	and	r1, r1, #2
80000850:	e3510002 	cmp	r1, #2
80000854:	1afffffb 	bne	80000848 <mmc0_init+0x1a0>
80000858:	e3a01f8d 	mov	r1, #564	; 0x234
8000085c:	e3a02001 	mov	r2, #1
80000860:	e3a03001 	mov	r3, #1
80000864:	e7904001 	ldr	r4, [r0, r1]
80000868:	e0033002 	and	r3, r3, r2
8000086c:	e1c44002 	bic	r4, r4, r2
80000870:	e1843003 	orr	r3, r4, r3
80000874:	e7803001 	str	r3, [r0, r1]
80000878:	e3a01f8d 	mov	r1, #564	; 0x234
8000087c:	e3a02002 	mov	r2, #2
80000880:	e3a03002 	mov	r3, #2
80000884:	e7904001 	ldr	r4, [r0, r1]
80000888:	e0033002 	and	r3, r3, r2
8000088c:	e1c44002 	bic	r4, r4, r2
80000890:	e1843003 	orr	r3, r4, r3
80000894:	e7803001 	str	r3, [r0, r1]
80000898:	e3a01f8d 	mov	r1, #564	; 0x234
8000089c:	e59f21b8 	ldr	r2, [pc, #440]	; 80000a5c <mmc0_get_resp+0x4c>
800008a0:	e3e0320f 	mvn	r3, #-268435456	; 0xf0000000
800008a4:	e7904001 	ldr	r4, [r0, r1]
800008a8:	e0033002 	and	r3, r3, r2
800008ac:	e1c44002 	bic	r4, r4, r2
800008b0:	e1843003 	orr	r3, r4, r3
800008b4:	e7803001 	str	r3, [r0, r1]
800008b8:	e3a01e23 	mov	r1, #560	; 0x230
800008bc:	e59f2198 	ldr	r2, [pc, #408]	; 80000a5c <mmc0_get_resp+0x4c>
800008c0:	e3e03000 	mvn	r3, #0
800008c4:	e7904001 	ldr	r4, [r0, r1]
800008c8:	e0033002 	and	r3, r3, r2
800008cc:	e1c44002 	bic	r4, r4, r2
800008d0:	e1843003 	orr	r3, r4, r3
800008d4:	e7803001 	str	r3, [r0, r1]
800008d8:	e3a01f4b 	mov	r1, #300	; 0x12c
800008dc:	e3a02002 	mov	r2, #2
800008e0:	e3a03002 	mov	r3, #2
800008e4:	e7904001 	ldr	r4, [r0, r1]
800008e8:	e0033002 	and	r3, r3, r2
800008ec:	e1c44002 	bic	r4, r4, r2
800008f0:	e1843003 	orr	r3, r4, r3
800008f4:	e7803001 	str	r3, [r0, r1]
800008f8:	e3a01000 	mov	r1, #0
800008fc:	e580120c 	str	r1, [r0, #524]	; 0x20c
80000900:	e5901230 	ldr	r1, [r0, #560]	; 0x230
80000904:	e2012001 	and	r2, r1, #1
80000908:	e3520001 	cmp	r2, #1
8000090c:	0a000003 	beq	80000920 <mmc0_init+0x278>
80000910:	e3110902 	tst	r1, #32768	; 0x8000
80000914:	0afffff9 	beq	80000900 <mmc0_init+0x258>
80000918:	e3a00001 	mov	r0, #1
8000091c:	ea000010 	b	80000964 <mmc0_init_exit>
80000920:	e3a01e23 	mov	r1, #560	; 0x230
80000924:	e3a02001 	mov	r2, #1
80000928:	e3a03001 	mov	r3, #1
8000092c:	e7904001 	ldr	r4, [r0, r1]
80000930:	e0033002 	and	r3, r3, r2
80000934:	e1c44002 	bic	r4, r4, r2
80000938:	e1843003 	orr	r3, r4, r3
8000093c:	e7803001 	str	r3, [r0, r1]
80000940:	e3a01f4b 	mov	r1, #300	; 0x12c
80000944:	e3a02002 	mov	r2, #2
80000948:	e3a03000 	mov	r3, #0
8000094c:	e7904001 	ldr	r4, [r0, r1]
80000950:	e0033002 	and	r3, r3, r2
80000954:	e1c44002 	bic	r4, r4, r2
80000958:	e1843003 	orr	r3, r4, r3
8000095c:	e7803001 	str	r3, [r0, r1]
80000960:	e3a00000 	mov	r0, #0

80000964 <mmc0_init_exit>:
80000964:	e8bd8010 	pop	{r4, r15}

80000968 <mmc0_irq_enab>:
80000968:	e92d4010 	push	{r4, r14}
8000096c:	e59f00d8 	ldr	r0, [pc, #216]	; 80000a4c <mmc0_get_resp+0x3c>
80000970:	e3a01f8e 	mov	r1, #568	; 0x238
80000974:	e59f20e4 	ldr	r2, [pc, #228]	; 80000a60 <mmc0_get_resp+0x50>
80000978:	e59f30e0 	ldr	r3, [pc, #224]	; 80000a60 <mmc0_get_resp+0x50>
8000097c:	e7904001 	ldr	r4, [r0, r1]
80000980:	e0033002 	and	r3, r3, r2
80000984:	e1c44002 	bic	r4, r4, r2
80000988:	e1843003 	orr	r3, r4, r3
8000098c:	e7803001 	str	r3, [r0, r1]
80000990:	e3a01f8d 	mov	r1, #564	; 0x234
80000994:	e59f30c4 	ldr	r3, [pc, #196]	; 80000a60 <mmc0_get_resp+0x50>
80000998:	e7904001 	ldr	r4, [r0, r1]
8000099c:	e0033002 	and	r3, r3, r2
800009a0:	e1c44002 	bic	r4, r4, r2
800009a4:	e1843003 	orr	r3, r4, r3
800009a8:	e7803001 	str	r3, [r0, r1]
800009ac:	e8bd8010 	pop	{r4, r15}

800009b0 <mmc0_send_cmd>:
800009b0:	e92d4070 	push	{r4, r5, r6, r14}
800009b4:	e59f4090 	ldr	r4, [pc, #144]	; 80000a4c <mmc0_get_resp+0x3c>
800009b8:	e5943204 	ldr	r3, [r4, #516]	; 0x204
800009bc:	e3005000 	movw	r5, #0
800009c0:	e34f5fff 	movt	r5, #65535	; 0xffff
800009c4:	e1c33005 	bic	r3, r3, r5
800009c8:	e1832802 	orr	r2, r3, r2, lsl #16
800009cc:	e5842204 	str	r2, [r4, #516]	; 0x204
800009d0:	e5841208 	str	r1, [r4, #520]	; 0x208
800009d4:	e584020c 	str	r0, [r4, #524]	; 0x20c
800009d8:	e8bd8070 	pop	{r4, r5, r6, r15}

800009dc <mmc0_set_dto>:
800009dc:	e92d4010 	push	{r4, r14}
800009e0:	e59f4064 	ldr	r4, [pc, #100]	; 80000a4c <mmc0_get_resp+0x3c>
800009e4:	e594122c 	ldr	r1, [r4, #556]	; 0x22c
800009e8:	e3c1180f 	bic	r1, r1, #983040	; 0xf0000
800009ec:	e240000d 	sub	r0, r0, #13
800009f0:	e200000f 	and	r0, r0, #15
800009f4:	e1811800 	orr	r1, r1, r0, lsl #16
800009f8:	e584122c 	str	r1, [r4, #556]	; 0x22c
800009fc:	e8bd8010 	pop	{r4, r15}

80000a00 <mmc0_clear_status>:
80000a00:	e92d4010 	push	{r4, r14}
80000a04:	e59f4040 	ldr	r4, [pc, #64]	; 80000a4c <mmc0_get_resp+0x3c>
80000a08:	e5840230 	str	r0, [r4, #560]	; 0x230
80000a0c:	e8bd8010 	pop	{r4, r15}

80000a10 <mmc0_get_resp>:
80000a10:	e92d4010 	push	{r4, r14}
80000a14:	e59f4030 	ldr	r4, [pc, #48]	; 80000a4c <mmc0_get_resp+0x3c>
80000a18:	e5941210 	ldr	r1, [r4, #528]	; 0x210
80000a1c:	e5801000 	str	r1, [r0]
80000a20:	e59f4024 	ldr	r4, [pc, #36]	; 80000a4c <mmc0_get_resp+0x3c>
80000a24:	e5941214 	ldr	r1, [r4, #532]	; 0x214
80000a28:	e5801004 	str	r1, [r0, #4]
80000a2c:	e59f4018 	ldr	r4, [pc, #24]	; 80000a4c <mmc0_get_resp+0x3c>
80000a30:	e5941218 	ldr	r1, [r4, #536]	; 0x218
80000a34:	e5801008 	str	r1, [r0, #8]
80000a38:	e59f400c 	ldr	r4, [pc, #12]	; 80000a4c <mmc0_get_resp+0x3c>
80000a3c:	e594121c 	ldr	r1, [r4, #540]	; 0x21c
80000a40:	e580100c 	str	r1, [r0, #12]
80000a44:	e8bd8010 	pop	{r4, r15}
80000a48:	44e00000 	strbtmi	r0, [r0], #0
80000a4c:	48060000 	stmdami	r6, {}	; <UNPREDICTABLE>
80000a50:	0000331d 	andeq	r3, r0, r13, lsl r3
80000a54:	00002015 	andeq	r2, r0, r5, lsl r0
80000a58:	0000ffc0 	andeq	r15, r0, r0, asr #31
80000a5c:	337f8000 	cmncc	r15, #0
80000a60:	001100c3 	andseq	r0, r1, r3, asr #1

80000a64 <rtc_init>:
80000a64:	e59f0180 	ldr	r0, [pc, #384]	; 80000bec <tim_delay+0x78>
80000a68:	e3a01002 	mov	r1, #2
80000a6c:	e5801000 	str	r1, [r0]
80000a70:	e3a01002 	mov	r1, #2
80000a74:	e5801004 	str	r1, [r0, #4]
80000a78:	e59f0170 	ldr	r0, [pc, #368]	; 80000bf0 <tim_delay+0x7c>
80000a7c:	e59f1170 	ldr	r1, [pc, #368]	; 80000bf4 <tim_delay+0x80>
80000a80:	e580106c 	str	r1, [r0, #108]	; 0x6c
80000a84:	e59f116c 	ldr	r1, [pc, #364]	; 80000bf8 <tim_delay+0x84>
80000a88:	e5801070 	str	r1, [r0, #112]	; 0x70
80000a8c:	e3a01048 	mov	r1, #72	; 0x48
80000a90:	e5801054 	str	r1, [r0, #84]	; 0x54
80000a94:	e3a01001 	mov	r1, #1
80000a98:	e5801040 	str	r1, [r0, #64]	; 0x40
80000a9c:	e5901044 	ldr	r1, [r0, #68]	; 0x44
80000aa0:	e2011001 	and	r1, r1, #1
80000aa4:	e3510000 	cmp	r1, #0
80000aa8:	1afffffb 	bne	80000a9c <rtc_init+0x38>
80000aac:	e3a01004 	mov	r1, #4
80000ab0:	e5801048 	str	r1, [r0, #72]	; 0x48
80000ab4:	e3a00000 	mov	r0, #0
80000ab8:	e12fff1e 	bx	r14

80000abc <rtc_isr>:
80000abc:	e59f012c 	ldr	r0, [pc, #300]	; 80000bf0 <tim_delay+0x7c>
80000ac0:	e59f1134 	ldr	r1, [pc, #308]	; 80000bfc <tim_delay+0x88>
80000ac4:	e5902000 	ldr	r2, [r0]
80000ac8:	e5812000 	str	r2, [r1]
80000acc:	e59f112c 	ldr	r1, [pc, #300]	; 80000c00 <tim_delay+0x8c>
80000ad0:	e5902004 	ldr	r2, [r0, #4]
80000ad4:	e5812000 	str	r2, [r1]
80000ad8:	e59f1124 	ldr	r1, [pc, #292]	; 80000c04 <tim_delay+0x90>
80000adc:	e5902008 	ldr	r2, [r0, #8]
80000ae0:	e5812000 	str	r2, [r1]
80000ae4:	e59f111c 	ldr	r1, [pc, #284]	; 80000c08 <tim_delay+0x94>
80000ae8:	e590200c 	ldr	r2, [r0, #12]
80000aec:	e5812000 	str	r2, [r1]
80000af0:	e59f1114 	ldr	r1, [pc, #276]	; 80000c0c <tim_delay+0x98>
80000af4:	e5902010 	ldr	r2, [r0, #16]
80000af8:	e5812000 	str	r2, [r1]
80000afc:	e59f110c 	ldr	r1, [pc, #268]	; 80000c10 <tim_delay+0x9c>
80000b00:	e5902014 	ldr	r2, [r0, #20]
80000b04:	e5812000 	str	r2, [r1]
80000b08:	e59f1104 	ldr	r1, [pc, #260]	; 80000c14 <tim_delay+0xa0>
80000b0c:	e5912000 	ldr	r2, [r1]
80000b10:	e2822001 	add	r2, r2, #1
80000b14:	e5812000 	str	r2, [r1]
80000b18:	e12fff1e 	bx	r14

80000b1c <rtc_irq_count>:
80000b1c:	00000000 	andeq	r0, r0, r0

80000b20 <year>:
80000b20:	00000000 	andeq	r0, r0, r0

80000b24 <month>:
80000b24:	00000000 	andeq	r0, r0, r0

80000b28 <day>:
80000b28:	00000000 	andeq	r0, r0, r0

80000b2c <hour>:
80000b2c:	00000000 	andeq	r0, r0, r0

80000b30 <min>:
80000b30:	00000000 	andeq	r0, r0, r0

80000b34 <sec>:
80000b34:	00000000 	andeq	r0, r0, r0

80000b38 <tim_init>:
80000b38:	e59f00ac 	ldr	r0, [pc, #172]	; 80000bec <tim_delay+0x78>
80000b3c:	e3a01002 	mov	r1, #2
80000b40:	e580107c 	str	r1, [r0, #124]	; 0x7c
80000b44:	e590107c 	ldr	r1, [r0, #124]	; 0x7c
80000b48:	e3110002 	tst	r1, #2
80000b4c:	0afffffc 	beq	80000b44 <tim_init+0xc>
80000b50:	e59f00c0 	ldr	r0, [pc, #192]	; 80000c18 <tim_delay+0xa4>
80000b54:	e3a01003 	mov	r1, #3
80000b58:	e5801038 	str	r1, [r0, #56]	; 0x38
80000b5c:	e5901054 	ldr	r1, [r0, #84]	; 0x54
80000b60:	e3a02004 	mov	r2, #4
80000b64:	e1811002 	orr	r1, r1, r2
80000b68:	e5801054 	str	r1, [r0, #84]	; 0x54
80000b6c:	e3a00000 	mov	r0, #0
80000b70:	e12fff1e 	bx	r14

80000b74 <tim_delay>:
80000b74:	e1a03000 	mov	r3, r0
80000b78:	e59f109c 	ldr	r1, [pc, #156]	; 80000c1c <tim_delay+0xa8>
80000b7c:	e0030193 	mul	r3, r3, r1
80000b80:	e59f0090 	ldr	r0, [pc, #144]	; 80000c18 <tim_delay+0xa4>
80000b84:	e5901048 	ldr	r1, [r0, #72]	; 0x48
80000b88:	e2011002 	and	r1, r1, #2
80000b8c:	e3510000 	cmp	r1, #0
80000b90:	1afffffb 	bne	80000b84 <tim_delay+0x10>
80000b94:	e3a01000 	mov	r1, #0
80000b98:	e580103c 	str	r1, [r0, #60]	; 0x3c
80000b9c:	e5901048 	ldr	r1, [r0, #72]	; 0x48
80000ba0:	e2011001 	and	r1, r1, #1
80000ba4:	e3510000 	cmp	r1, #0
80000ba8:	1afffffb 	bne	80000b9c <tim_delay+0x28>
80000bac:	e5901038 	ldr	r1, [r0, #56]	; 0x38
80000bb0:	e3a02001 	mov	r2, #1
80000bb4:	e1811002 	orr	r1, r1, r2
80000bb8:	e5801038 	str	r1, [r0, #56]	; 0x38
80000bbc:	e590103c 	ldr	r1, [r0, #60]	; 0x3c
80000bc0:	e1510003 	cmp	r1, r3
80000bc4:	bafffffc 	blt	80000bbc <tim_delay+0x48>
80000bc8:	e5901048 	ldr	r1, [r0, #72]	; 0x48
80000bcc:	e2011001 	and	r1, r1, #1
80000bd0:	e3510000 	cmp	r1, #0
80000bd4:	1afffffb 	bne	80000bc8 <tim_delay+0x54>
80000bd8:	e5901038 	ldr	r1, [r0, #56]	; 0x38
80000bdc:	e3e02001 	mvn	r2, #1
80000be0:	e0011002 	and	r1, r1, r2
80000be4:	e5801038 	str	r1, [r0, #56]	; 0x38
80000be8:	e12fff1e 	bx	r14
80000bec:	44e00000 	strbtmi	r0, [r0], #0
80000bf0:	44e3e000 	strbtmi	r14, [r3], #0
80000bf4:	83e70b13 	mvnhi	r0, #19456	; 0x4c00
80000bf8:	95a4f1e0 	strls	r15, [r4, #480]!	; 0x1e0
80000bfc:	80000b34 	andhi	r0, r0, r4, lsr r11
80000c00:	80000b30 	andhi	r0, r0, r0, lsr r11
80000c04:	80000b2c 	andhi	r0, r0, r12, lsr #22
80000c08:	80000b28 	andhi	r0, r0, r8, lsr #22
80000c0c:	80000b24 	andhi	r0, r0, r4, lsr #22
80000c10:	80000b20 	andhi	r0, r0, r0, lsr #22
80000c14:	80000b1c 	andhi	r0, r0, r12, lsl r11
80000c18:	4804a000 	stmdami	r4, {r13, r15}
80000c1c:	00005dc0 	andeq	r5, r0, r0, asr #27

80000c20 <CP15ICacheDisable>:
80000c20:	e52de004 	push	{r14}		; (str r14, [r13, #-4]!)
80000c24:	ee110f10 	mrc	15, 0, r0, cr1, cr0, {0}
80000c28:	e3c00a01 	bic	r0, r0, #4096	; 0x1000
80000c2c:	ee010f10 	mcr	15, 0, r0, cr1, cr0, {0}
80000c30:	eb00007f 	bl	80000e34 <CP15ICacheFlush>
80000c34:	e49de004 	pop	{r14}		; (ldr r14, [r13], #4)
80000c38:	e12fff1e 	bx	r14

80000c3c <CP15DCacheDisable>:
80000c3c:	e92d4ff0 	push	{r4, r5, r6, r7, r8, r9, r10, r11, r14}
80000c40:	ee110f10 	mrc	15, 0, r0, cr1, cr0, {0}
80000c44:	e3c00004 	bic	r0, r0, #4
80000c48:	ee010f10 	mcr	15, 0, r0, cr1, cr0, {0}
80000c4c:	eb000053 	bl	80000da0 <CP15DCacheCleanFlush>
80000c50:	e8bd4ff0 	pop	{r4, r5, r6, r7, r8, r9, r10, r11, r14}
80000c54:	e12fff1e 	bx	r14

80000c58 <CP15ICacheEnable>:
80000c58:	ee110f10 	mrc	15, 0, r0, cr1, cr0, {0}
80000c5c:	e3800a01 	orr	r0, r0, #4096	; 0x1000
80000c60:	ee010f10 	mcr	15, 0, r0, cr1, cr0, {0}
80000c64:	e12fff1e 	bx	r14

80000c68 <CP15DCacheEnable>:
80000c68:	ee110f10 	mrc	15, 0, r0, cr1, cr0, {0}
80000c6c:	e3800004 	orr	r0, r0, #4
80000c70:	ee010f10 	mcr	15, 0, r0, cr1, cr0, {0}
80000c74:	e12fff1e 	bx	r14

80000c78 <CP15DCacheFlush>:
80000c78:	e92d0ff0 	push	{r4, r5, r6, r7, r8, r9, r10, r11}
80000c7c:	f57ff05f 	dmb	sy
80000c80:	ee300f30 	mrc	15, 1, r0, cr0, cr0, {1}
80000c84:	e2103407 	ands	r3, r0, #117440512	; 0x7000000
80000c88:	e1a03ba3 	lsr	r3, r3, #23
80000c8c:	0a00001a 	beq	80000cfc <ffinished>
80000c90:	e3a0a000 	mov	r10, #0

80000c94 <floop1>:
80000c94:	e08a20aa 	add	r2, r10, r10, lsr #1
80000c98:	e1a01230 	lsr	r1, r0, r2
80000c9c:	e2011007 	and	r1, r1, #7
80000ca0:	e3510002 	cmp	r1, #2
80000ca4:	ba000011 	blt	80000cf0 <fskip>
80000ca8:	ee40af10 	mcr	15, 2, r10, cr0, cr0, {0}
80000cac:	f57ff06f 	isb	sy
80000cb0:	ee301f10 	mrc	15, 1, r1, cr0, cr0, {0}
80000cb4:	e2012007 	and	r2, r1, #7
80000cb8:	e2822004 	add	r2, r2, #4
80000cbc:	e59f43b4 	ldr	r4, [pc, #948]	; 80001078 <_FLD_MAX_WAY>
80000cc0:	e01441a1 	ands	r4, r4, r1, lsr #3
80000cc4:	e16f5f14 	clz	r5, r4
80000cc8:	e59f73ac 	ldr	r7, [pc, #940]	; 8000107c <_FLD_MAX_IDX>
80000ccc:	e01776a1 	ands	r7, r7, r1, lsr #13

80000cd0 <floop2>:
80000cd0:	e1a09004 	mov	r9, r4

80000cd4 <floop3>:
80000cd4:	e18ab519 	orr	r11, r10, r9, lsl r5
80000cd8:	e18bb217 	orr	r11, r11, r7, lsl r2
80000cdc:	ee07bf56 	mcr	15, 0, r11, cr7, cr6, {2}
80000ce0:	e2599001 	subs	r9, r9, #1
80000ce4:	aafffffa 	bge	80000cd4 <floop3>
80000ce8:	e2577001 	subs	r7, r7, #1
80000cec:	aafffff7 	bge	80000cd0 <floop2>

80000cf0 <fskip>:
80000cf0:	e28aa002 	add	r10, r10, #2
80000cf4:	e153000a 	cmp	r3, r10
80000cf8:	caffffe5 	bgt	80000c94 <floop1>

80000cfc <ffinished>:
80000cfc:	f57ff04f 	dsb	sy
80000d00:	f57ff06f 	isb	sy
80000d04:	e8bd0ff0 	pop	{r4, r5, r6, r7, r8, r9, r10, r11}
80000d08:	e12fff1e 	bx	r14

80000d0c <CP15DCacheClean>:
80000d0c:	e92d0ff0 	push	{r4, r5, r6, r7, r8, r9, r10, r11}
80000d10:	f57ff05f 	dmb	sy
80000d14:	ee300f30 	mrc	15, 1, r0, cr0, cr0, {1}
80000d18:	e2103407 	ands	r3, r0, #117440512	; 0x7000000
80000d1c:	e1a03ba3 	lsr	r3, r3, #23
80000d20:	0a00001a 	beq	80000d90 <cfinished>
80000d24:	e3a0a000 	mov	r10, #0

80000d28 <cloop1>:
80000d28:	e08a20aa 	add	r2, r10, r10, lsr #1
80000d2c:	e1a01230 	lsr	r1, r0, r2
80000d30:	e2011007 	and	r1, r1, #7
80000d34:	e3510002 	cmp	r1, #2
80000d38:	ba000011 	blt	80000d84 <cskip>
80000d3c:	ee40af10 	mcr	15, 2, r10, cr0, cr0, {0}
80000d40:	f57ff06f 	isb	sy
80000d44:	ee301f10 	mrc	15, 1, r1, cr0, cr0, {0}
80000d48:	e2012007 	and	r2, r1, #7
80000d4c:	e2822004 	add	r2, r2, #4
80000d50:	e59f4320 	ldr	r4, [pc, #800]	; 80001078 <_FLD_MAX_WAY>
80000d54:	e01441a1 	ands	r4, r4, r1, lsr #3
80000d58:	e16f5f14 	clz	r5, r4
80000d5c:	e59f7318 	ldr	r7, [pc, #792]	; 8000107c <_FLD_MAX_IDX>
80000d60:	e01776a1 	ands	r7, r7, r1, lsr #13

80000d64 <cloop2>:
80000d64:	e1a09004 	mov	r9, r4

80000d68 <cloop3>:
80000d68:	e18ab519 	orr	r11, r10, r9, lsl r5
80000d6c:	e18bb217 	orr	r11, r11, r7, lsl r2
80000d70:	ee07bf5a 	mcr	15, 0, r11, cr7, cr10, {2}
80000d74:	e2599001 	subs	r9, r9, #1
80000d78:	aafffffa 	bge	80000d68 <cloop3>
80000d7c:	e2577001 	subs	r7, r7, #1
80000d80:	aafffff7 	bge	80000d64 <cloop2>

80000d84 <cskip>:
80000d84:	e28aa002 	add	r10, r10, #2
80000d88:	e153000a 	cmp	r3, r10
80000d8c:	caffffe5 	bgt	80000d28 <cloop1>

80000d90 <cfinished>:
80000d90:	f57ff04f 	dsb	sy
80000d94:	f57ff06f 	isb	sy
80000d98:	e8bd0ff0 	pop	{r4, r5, r6, r7, r8, r9, r10, r11}
80000d9c:	e12fff1e 	bx	r14

80000da0 <CP15DCacheCleanFlush>:
80000da0:	e92d0ff0 	push	{r4, r5, r6, r7, r8, r9, r10, r11}
80000da4:	f57ff05f 	dmb	sy
80000da8:	ee300f30 	mrc	15, 1, r0, cr0, cr0, {1}
80000dac:	e2103407 	ands	r3, r0, #117440512	; 0x7000000
80000db0:	e1a03ba3 	lsr	r3, r3, #23
80000db4:	0a00001a 	beq	80000e24 <finished>
80000db8:	e3a0a000 	mov	r10, #0

80000dbc <loop1>:
80000dbc:	e08a20aa 	add	r2, r10, r10, lsr #1
80000dc0:	e1a01230 	lsr	r1, r0, r2
80000dc4:	e2011007 	and	r1, r1, #7
80000dc8:	e3510002 	cmp	r1, #2
80000dcc:	ba000011 	blt	80000e18 <skip>
80000dd0:	ee40af10 	mcr	15, 2, r10, cr0, cr0, {0}
80000dd4:	f57ff06f 	isb	sy
80000dd8:	ee301f10 	mrc	15, 1, r1, cr0, cr0, {0}
80000ddc:	e2012007 	and	r2, r1, #7
80000de0:	e2822004 	add	r2, r2, #4
80000de4:	e59f428c 	ldr	r4, [pc, #652]	; 80001078 <_FLD_MAX_WAY>
80000de8:	e01441a1 	ands	r4, r4, r1, lsr #3
80000dec:	e16f5f14 	clz	r5, r4
80000df0:	e59f7284 	ldr	r7, [pc, #644]	; 8000107c <_FLD_MAX_IDX>
80000df4:	e01776a1 	ands	r7, r7, r1, lsr #13

80000df8 <loop2>:
80000df8:	e1a09004 	mov	r9, r4

80000dfc <loop3>:
80000dfc:	e18ab519 	orr	r11, r10, r9, lsl r5
80000e00:	e18bb217 	orr	r11, r11, r7, lsl r2
80000e04:	ee07bf5e 	mcr	15, 0, r11, cr7, cr14, {2}
80000e08:	e2599001 	subs	r9, r9, #1
80000e0c:	aafffffa 	bge	80000dfc <loop3>
80000e10:	e2577001 	subs	r7, r7, #1
80000e14:	aafffff7 	bge	80000df8 <loop2>

80000e18 <skip>:
80000e18:	e28aa002 	add	r10, r10, #2
80000e1c:	e153000a 	cmp	r3, r10
80000e20:	caffffe5 	bgt	80000dbc <loop1>

80000e24 <finished>:
80000e24:	f57ff04f 	dsb	sy
80000e28:	f57ff06f 	isb	sy
80000e2c:	e8bd0ff0 	pop	{r4, r5, r6, r7, r8, r9, r10, r11}
80000e30:	e12fff1e 	bx	r14

80000e34 <CP15ICacheFlush>:
80000e34:	e3a00000 	mov	r0, #0
80000e38:	ee070f15 	mcr	15, 0, r0, cr7, cr5, {0}
80000e3c:	f57ff04f 	dsb	sy
80000e40:	e12fff1e 	bx	r14

80000e44 <CP15DCacheCleanBuff>:
80000e44:	e52de004 	push	{r14}		; (str r14, [r13, #-4]!)
80000e48:	e080e001 	add	r14, r0, r1
80000e4c:	f57ff05f 	dmb	sy
80000e50:	ee102f30 	mrc	15, 0, r2, cr0, cr0, {1}
80000e54:	e7e32852 	ubfx	r2, r2, #16, #4
80000e58:	e3a03002 	mov	r3, #2
80000e5c:	e0833002 	add	r3, r3, r2
80000e60:	e3a02001 	mov	r2, #1
80000e64:	e1a02312 	lsl	r2, r2, r3
80000e68:	e2423001 	sub	r3, r2, #1
80000e6c:	e1c00003 	bic	r0, r0, r3
80000e70:	e113000e 	tst	r3, r14
80000e74:	e1cee003 	bic	r14, r14, r3
80000e78:	1e07ef3a 	mcrne	15, 0, r14, cr7, cr10, {1}

80000e7c <cleanloop>:
80000e7c:	ee070f3a 	mcr	15, 0, r0, cr7, cr10, {1}
80000e80:	e0900002 	adds	r0, r0, r2
80000e84:	e150000e 	cmp	r0, r14
80000e88:	bafffffb 	blt	80000e7c <cleanloop>
80000e8c:	e49de004 	pop	{r14}		; (ldr r14, [r13], #4)
80000e90:	f57ff04f 	dsb	sy
80000e94:	e12fff1e 	bx	r14

80000e98 <CP15DCacheCleanFlushBuff>:
80000e98:	e52de004 	push	{r14}		; (str r14, [r13, #-4]!)
80000e9c:	e080e001 	add	r14, r0, r1
80000ea0:	f57ff05f 	dmb	sy
80000ea4:	ee102f30 	mrc	15, 0, r2, cr0, cr0, {1}
80000ea8:	e7e32852 	ubfx	r2, r2, #16, #4
80000eac:	e3a03002 	mov	r3, #2
80000eb0:	e0833002 	add	r3, r3, r2
80000eb4:	e3a02001 	mov	r2, #1
80000eb8:	e1a02312 	lsl	r2, r2, r3
80000ebc:	e2423001 	sub	r3, r2, #1
80000ec0:	e1c00003 	bic	r0, r0, r3
80000ec4:	e113000e 	tst	r3, r14
80000ec8:	e1cee003 	bic	r14, r14, r3
80000ecc:	1e07ef3e 	mcrne	15, 0, r14, cr7, cr14, {1}

80000ed0 <cleanflushloop>:
80000ed0:	ee070f3e 	mcr	15, 0, r0, cr7, cr14, {1}
80000ed4:	e0900002 	adds	r0, r0, r2
80000ed8:	e150000e 	cmp	r0, r14
80000edc:	bafffffb 	blt	80000ed0 <cleanflushloop>
80000ee0:	e49de004 	pop	{r14}		; (ldr r14, [r13], #4)
80000ee4:	f57ff04f 	dsb	sy
80000ee8:	e12fff1e 	bx	r14

80000eec <CP15DCacheFlushBuff>:
80000eec:	e52de004 	push	{r14}		; (str r14, [r13, #-4]!)
80000ef0:	e080e001 	add	r14, r0, r1
80000ef4:	f57ff05f 	dmb	sy
80000ef8:	ee102f30 	mrc	15, 0, r2, cr0, cr0, {1}
80000efc:	e7e32852 	ubfx	r2, r2, #16, #4
80000f00:	e3a03002 	mov	r3, #2
80000f04:	e0833002 	add	r3, r3, r2
80000f08:	e3a02001 	mov	r2, #1
80000f0c:	e1a02312 	lsl	r2, r2, r3
80000f10:	e2423001 	sub	r3, r2, #1
80000f14:	e1130000 	tst	r3, r0
80000f18:	e1c00003 	bic	r0, r0, r3
80000f1c:	1e070f3e 	mcrne	15, 0, r0, cr7, cr14, {1}
80000f20:	10800002 	addne	r0, r0, r2
80000f24:	e113000e 	tst	r3, r14
80000f28:	e1cee003 	bic	r14, r14, r3
80000f2c:	1e07ef3e 	mcrne	15, 0, r14, cr7, cr14, {1}
80000f30:	ea000001 	b	80000f3c <dflushcmp>

80000f34 <dflushloop>:
80000f34:	ee070f36 	mcr	15, 0, r0, cr7, cr6, {1}
80000f38:	e0900002 	adds	r0, r0, r2

80000f3c <dflushcmp>:
80000f3c:	e150000e 	cmp	r0, r14
80000f40:	bafffffb 	blt	80000f34 <dflushloop>
80000f44:	e49de004 	pop	{r14}		; (ldr r14, [r13], #4)
80000f48:	f57ff04f 	dsb	sy
80000f4c:	e12fff1e 	bx	r14

80000f50 <CP15ICacheFlushBuff>:
80000f50:	e52de004 	push	{r14}		; (str r14, [r13, #-4]!)
80000f54:	e080e001 	add	r14, r0, r1
80000f58:	f57ff05f 	dmb	sy
80000f5c:	ee102f30 	mrc	15, 0, r2, cr0, cr0, {1}
80000f60:	e7e32052 	ubfx	r2, r2, #0, #4
80000f64:	e3a03002 	mov	r3, #2
80000f68:	e0833002 	add	r3, r3, r2
80000f6c:	e3a02001 	mov	r2, #1
80000f70:	e1a02312 	lsl	r2, r2, r3
80000f74:	e2423001 	sub	r3, r2, #1
80000f78:	e1c00003 	bic	r0, r0, r3
80000f7c:	e113000e 	tst	r3, r14
80000f80:	e1cee003 	bic	r14, r14, r3
80000f84:	1e07ef35 	mcrne	15, 0, r14, cr7, cr5, {1}

80000f88 <iflushloop>:
80000f88:	ee070f35 	mcr	15, 0, r0, cr7, cr5, {1}
80000f8c:	e0900002 	adds	r0, r0, r2
80000f90:	e150000e 	cmp	r0, r14
80000f94:	bafffffb 	blt	80000f88 <iflushloop>
80000f98:	e49de004 	pop	{r14}		; (ldr r14, [r13], #4)
80000f9c:	f57ff04f 	dsb	sy
80000fa0:	e12fff1e 	bx	r14

80000fa4 <CP15Ttb0Set>:
80000fa4:	ee020f10 	mcr	15, 0, r0, cr2, cr0, {0}
80000fa8:	f57ff05f 	dmb	sy
80000fac:	e12fff1e 	bx	r14

80000fb0 <CP15TlbInvalidate>:
80000fb0:	e3a00000 	mov	r0, #0
80000fb4:	ee080f17 	mcr	15, 0, r0, cr8, cr7, {0}
80000fb8:	f57ff04f 	dsb	sy
80000fbc:	e12fff1e 	bx	r14

80000fc0 <CP15MMUDisable>:
80000fc0:	ee080f17 	mcr	15, 0, r0, cr8, cr7, {0}
80000fc4:	ee110f10 	mrc	15, 0, r0, cr1, cr0, {0}
80000fc8:	e3c00001 	bic	r0, r0, #1
80000fcc:	ee010f10 	mcr	15, 0, r0, cr1, cr0, {0}
80000fd0:	f57ff04f 	dsb	sy
80000fd4:	e12fff1e 	bx	r14

80000fd8 <CP15MMUEnable>:
80000fd8:	ee110f10 	mrc	15, 0, r0, cr1, cr0, {0}
80000fdc:	e3800001 	orr	r0, r0, #1
80000fe0:	ee010f10 	mcr	15, 0, r0, cr1, cr0, {0}
80000fe4:	f57ff04f 	dsb	sy
80000fe8:	e12fff1e 	bx	r14

80000fec <CP15DomainAccessClientSet>:
80000fec:	e59f0080 	ldr	r0, [pc, #128]	; 80001074 <_CLIENTD>
80000ff0:	ee030f10 	mcr	15, 0, r0, cr3, cr0, {0}
80000ff4:	f57ff04f 	dsb	sy
80000ff8:	e12fff1e 	bx	r14

80000ffc <CP15ControlFeatureDisable>:
80000ffc:	ee111f10 	mrc	15, 0, r1, cr1, cr0, {0}
80001000:	e1c10000 	bic	r0, r1, r0
80001004:	ee010f10 	mcr	15, 0, r0, cr1, cr0, {0}
80001008:	f57ff04f 	dsb	sy
8000100c:	e12fff1e 	bx	r14

80001010 <CP15ControlFeatureEnable>:
80001010:	ee111f10 	mrc	15, 0, r1, cr1, cr0, {0}
80001014:	e1810000 	orr	r0, r1, r0
80001018:	ee010f10 	mcr	15, 0, r0, cr1, cr0, {0}
8000101c:	f57ff04f 	dsb	sy
80001020:	e12fff1e 	bx	r14

80001024 <CP15TtbCtlTtb0Config>:
80001024:	e3a00000 	mov	r0, #0
80001028:	ee020f50 	mcr	15, 0, r0, cr2, cr0, {2}
8000102c:	f57ff04f 	dsb	sy
80001030:	e12fff1e 	bx	r14

80001034 <CP15AuxControlFeatureEnable>:
80001034:	ee111f30 	mrc	15, 0, r1, cr1, cr0, {1}
80001038:	e1800001 	orr	r0, r0, r1
8000103c:	ee010f30 	mcr	15, 0, r0, cr1, cr0, {1}
80001040:	f57ff04f 	dsb	sy
80001044:	e12fff1e 	bx	r14

80001048 <CP15AuxControlFeatureDisable>:
80001048:	ee111f30 	mrc	15, 0, r1, cr1, cr0, {1}
8000104c:	e1c10000 	bic	r0, r1, r0
80001050:	ee010f30 	mcr	15, 0, r0, cr1, cr0, {1}
80001054:	f57ff04f 	dsb	sy
80001058:	e12fff1e 	bx	r14

8000105c <CP15MainIdPrimPartNumGet>:
8000105c:	ee100f10 	mrc	15, 0, r0, cr0, cr0, {0}
80001060:	e7eb0250 	ubfx	r0, r0, #4, #12
80001064:	e12fff1e 	bx	r14

80001068 <CP15VectorBaseAddrSet>:
80001068:	ee0c0f10 	mcr	15, 0, r0, cr12, cr0, {0}
8000106c:	f57ff04f 	dsb	sy
80001070:	e12fff1e 	bx	r14

80001074 <_CLIENTD>:
80001074:	55555555 	ldrbpl	r5, [r5, #-1365]	; 0xfffffaab

80001078 <_FLD_MAX_WAY>:
80001078:	000003ff 	strdeq	r0, [r0], -r15	; <UNPREDICTABLE>

8000107c <_FLD_MAX_IDX>:
8000107c:	000007ff 	strdeq	r0, [r0], -r15	; <UNPREDICTABLE>

80001080 <mclk_1GHz>:
80001080:	e3000000 	movw	r0, #0
80001084:	e34404e0 	movt	r0, #17632	; 0x44e0
80001088:	e5901490 	ldr	r1, [r0, #1168]	; 0x490
8000108c:	e3c11007 	bic	r1, r1, #7
80001090:	e3811004 	orr	r1, r1, #4
80001094:	e5801490 	str	r1, [r0, #1168]	; 0x490
80001098:	e590145c 	ldr	r1, [r0, #1116]	; 0x45c
8000109c:	e3110c01 	tst	r1, #256	; 0x100
800010a0:	0afffffc 	beq	80001098 <mclk_1GHz+0x18>
800010a4:	e30e1817 	movw	r1, #59415	; 0xe817
800010a8:	e3401003 	movt	r1, #3
800010ac:	e5801468 	str	r1, [r0, #1128]	; 0x468
800010b0:	e3a0100a 	mov	r1, #10
800010b4:	e5801480 	str	r1, [r0, #1152]	; 0x480
800010b8:	e3a01008 	mov	r1, #8
800010bc:	e5801484 	str	r1, [r0, #1156]	; 0x484
800010c0:	e3a01004 	mov	r1, #4
800010c4:	e58014d8 	str	r1, [r0, #1240]	; 0x4d8
800010c8:	e5901490 	ldr	r1, [r0, #1168]	; 0x490
800010cc:	e3c11007 	bic	r1, r1, #7
800010d0:	e3811007 	orr	r1, r1, #7
800010d4:	e5801490 	str	r1, [r0, #1168]	; 0x490
800010d8:	e590145c 	ldr	r1, [r0, #1116]	; 0x45c
800010dc:	e3110001 	tst	r1, #1
800010e0:	0afffffc 	beq	800010d8 <mclk_1GHz+0x58>
800010e4:	e12fff1e 	bx	r14

800010e8 <cache_en>:
800010e8:	e10f0000 	mrs	r0, CPSR
800010ec:	e38000c0 	orr	r0, r0, #192	; 0xc0
800010f0:	e129f000 	msr	CPSR_fc, r0
800010f4:	f57ff04f 	dsb	sy
800010f8:	f57ff05f 	dmb	sy
800010fc:	ee111f10 	mrc	15, 0, r1, cr1, cr0, {0}
80001100:	e3811004 	orr	r1, r1, #4
80001104:	e3811a01 	orr	r1, r1, #4096	; 0x1000
80001108:	e3811b02 	orr	r1, r1, #2048	; 0x800
8000110c:	ee011f10 	mcr	15, 0, r1, cr1, cr0, {0}
80001110:	f57ff04f 	dsb	sy
80001114:	f57ff05f 	dmb	sy
80001118:	ee111f30 	mrc	15, 0, r1, cr1, cr0, {1}
8000111c:	e3811002 	orr	r1, r1, #2
80001120:	e3811008 	orr	r1, r1, #8
80001124:	ee011f30 	mcr	15, 0, r1, cr1, cr0, {1}
80001128:	f57ff04f 	dsb	sy
8000112c:	f57ff05f 	dmb	sy
80001130:	e12fff1e 	bx	r14

80001134 <memcmp>:
80001134:	e3520000 	cmp	r2, #0
80001138:	0a00000e 	beq	80001178 <memcmp+0x44>
8000113c:	e5d0c000 	ldrb	r12, [r0]
80001140:	e5d13000 	ldrb	r3, [r1]
80001144:	e15c0003 	cmp	r12, r3
80001148:	3a00000c 	bcc	80001180 <memcmp+0x4c>
8000114c:	8a00000d 	bhi	80001188 <memcmp+0x54>
80001150:	e0802002 	add	r2, r0, r2
80001154:	e2800001 	add	r0, r0, #1
80001158:	ea000004 	b	80001170 <memcmp+0x3c>
8000115c:	e4d0c001 	ldrb	r12, [r0], #1
80001160:	e5f13001 	ldrb	r3, [r1, #1]!
80001164:	e15c0003 	cmp	r12, r3
80001168:	3a000004 	bcc	80001180 <memcmp+0x4c>
8000116c:	8a000005 	bhi	80001188 <memcmp+0x54>
80001170:	e1500002 	cmp	r0, r2
80001174:	1afffff8 	bne	8000115c <memcmp+0x28>
80001178:	e3a00000 	mov	r0, #0
8000117c:	e12fff1e 	bx	r14
80001180:	e3e00000 	mvn	r0, #0
80001184:	e12fff1e 	bx	r14
80001188:	e3a00001 	mov	r0, #1
8000118c:	e12fff1e 	bx	r14

80001190 <memcpy>:
80001190:	e3520000 	cmp	r2, #0
80001194:	012fff1e 	bxeq	r14
80001198:	e0812002 	add	r2, r1, r2
8000119c:	e2403001 	sub	r3, r0, #1
800011a0:	e4d1c001 	ldrb	r12, [r1], #1
800011a4:	e1510002 	cmp	r1, r2
800011a8:	e5e3c001 	strb	r12, [r3, #1]!
800011ac:	1afffffb 	bne	800011a0 <memcpy+0x10>
800011b0:	e12fff1e 	bx	r14

800011b4 <memset>:
800011b4:	e3520000 	cmp	r2, #0
800011b8:	e6ef1071 	uxtb	r1, r1
800011bc:	012fff1e 	bxeq	r14
800011c0:	e0802002 	add	r2, r0, r2
800011c4:	e1a03000 	mov	r3, r0
800011c8:	e4c31001 	strb	r1, [r3], #1
800011cc:	e1530002 	cmp	r3, r2
800011d0:	1afffffc 	bne	800011c8 <memset+0x14>
800011d4:	e12fff1e 	bx	r14

800011d8 <strcat>:
800011d8:	e5d03000 	ldrb	r3, [r0]
800011dc:	e52de004 	push	{r14}		; (str r14, [r13, #-4]!)
800011e0:	e3530000 	cmp	r3, #0
800011e4:	0a000014 	beq	8000123c <strcat+0x64>
800011e8:	e2802001 	add	r2, r0, #1
800011ec:	e3a03000 	mov	r3, #0
800011f0:	e5d2e000 	ldrb	r14, [r2]
800011f4:	e1a0c002 	mov	r12, r2
800011f8:	e2833001 	add	r3, r3, #1
800011fc:	e2822001 	add	r2, r2, #1
80001200:	e35e0000 	cmp	r14, #0
80001204:	1afffff9 	bne	800011f0 <strcat+0x18>
80001208:	e5d12000 	ldrb	r2, [r1]
8000120c:	e3520000 	cmp	r2, #0
80001210:	0a000006 	beq	80001230 <strcat+0x58>
80001214:	e080c003 	add	r12, r0, r3
80001218:	e4cc2001 	strb	r2, [r12], #1
8000121c:	e2833001 	add	r3, r3, #1
80001220:	e5f12001 	ldrb	r2, [r1, #1]!
80001224:	e3520000 	cmp	r2, #0
80001228:	1afffffa 	bne	80001218 <strcat+0x40>
8000122c:	e080c003 	add	r12, r0, r3
80001230:	e3a03000 	mov	r3, #0
80001234:	e5cc3000 	strb	r3, [r12]
80001238:	e49df004 	pop	{r15}		; (ldr r15, [r13], #4)
8000123c:	e1a0c000 	mov	r12, r0
80001240:	eafffff0 	b	80001208 <strcat+0x30>

80001244 <strcmp>:
80001244:	e5d03000 	ldrb	r3, [r0]
80001248:	e3530000 	cmp	r3, #0
8000124c:	05d10000 	ldrbeq	r0, [r1]
80001250:	0a000013 	beq	800012a4 <strcmp+0x60>
80001254:	e5d12000 	ldrb	r2, [r1]
80001258:	e062c003 	rsb	r12, r2, r3
8000125c:	e3520000 	cmp	r2, #0
80001260:	e16fcf1c 	clz	r12, r12
80001264:	e1a0c2ac 	lsr	r12, r12, #5
80001268:	03a0c000 	moveq	r12, #0
8000126c:	e35c0000 	cmp	r12, #0
80001270:	1a000007 	bne	80001294 <strcmp+0x50>
80001274:	ea00000c 	b	800012ac <strcmp+0x68>
80001278:	e5f12001 	ldrb	r2, [r1, #1]!
8000127c:	e292c000 	adds	r12, r2, #0
80001280:	13a0c001 	movne	r12, #1
80001284:	e1530002 	cmp	r3, r2
80001288:	13a0c000 	movne	r12, #0
8000128c:	e35c0000 	cmp	r12, #0
80001290:	0a000005 	beq	800012ac <strcmp+0x68>
80001294:	e5f03001 	ldrb	r3, [r0, #1]!
80001298:	e3530000 	cmp	r3, #0
8000129c:	1afffff5 	bne	80001278 <strcmp+0x34>
800012a0:	e5d10001 	ldrb	r0, [r1, #1]
800012a4:	e0600003 	rsb	r0, r0, r3
800012a8:	e12fff1e 	bx	r14
800012ac:	e1a00002 	mov	r0, r2
800012b0:	e0600003 	rsb	r0, r0, r3
800012b4:	e12fff1e 	bx	r14

800012b8 <strncmp>:
800012b8:	e3520000 	cmp	r2, #0
800012bc:	0a000012 	beq	8000130c <strncmp+0x54>
800012c0:	e5d03000 	ldrb	r3, [r0]
800012c4:	e5d1c000 	ldrb	r12, [r1]
800012c8:	e15c0003 	cmp	r12, r3
800012cc:	8a000010 	bhi	80001314 <strncmp+0x5c>
800012d0:	3a000011 	bcc	8000131c <strncmp+0x64>
800012d4:	e3530000 	cmp	r3, #0
800012d8:	0a00000b 	beq	8000130c <strncmp+0x54>
800012dc:	e0802002 	add	r2, r0, r2
800012e0:	e2803001 	add	r3, r0, #1
800012e4:	ea000006 	b	80001304 <strncmp+0x4c>
800012e8:	e4d30001 	ldrb	r0, [r3], #1
800012ec:	e5f1c001 	ldrb	r12, [r1, #1]!
800012f0:	e150000c 	cmp	r0, r12
800012f4:	3a000006 	bcc	80001314 <strncmp+0x5c>
800012f8:	8a000007 	bhi	8000131c <strncmp+0x64>
800012fc:	e3500000 	cmp	r0, #0
80001300:	012fff1e 	bxeq	r14
80001304:	e1530002 	cmp	r3, r2
80001308:	1afffff6 	bne	800012e8 <strncmp+0x30>
8000130c:	e3a00000 	mov	r0, #0
80001310:	e12fff1e 	bx	r14
80001314:	e3e00000 	mvn	r0, #0
80001318:	e12fff1e 	bx	r14
8000131c:	e3a00001 	mov	r0, #1
80001320:	e12fff1e 	bx	r14

80001324 <strcpy>:
80001324:	e5d13000 	ldrb	r3, [r1]
80001328:	e92d4010 	push	{r4, r14}
8000132c:	e3530000 	cmp	r3, #0
80001330:	e1a04000 	mov	r4, r0
80001334:	0a00000b 	beq	80001368 <strcpy+0x44>
80001338:	e240c001 	sub	r12, r0, #1
8000133c:	e3a02000 	mov	r2, #0
80001340:	e5ec3001 	strb	r3, [r12, #1]!
80001344:	e2822001 	add	r2, r2, #1
80001348:	e5f13001 	ldrb	r3, [r1, #1]!
8000134c:	e1a0e002 	mov	r14, r2
80001350:	e3530000 	cmp	r3, #0
80001354:	1afffff9 	bne	80001340 <strcpy+0x1c>
80001358:	e3a03000 	mov	r3, #0
8000135c:	e1a00004 	mov	r0, r4
80001360:	e7c4300e 	strb	r3, [r4, r14]
80001364:	e8bd8010 	pop	{r4, r15}
80001368:	e1a0e003 	mov	r14, r3
8000136c:	eafffff9 	b	80001358 <strcpy+0x34>

80001370 <strncpy>:
80001370:	e3520000 	cmp	r2, #0
80001374:	012fff1e 	bxeq	r14
80001378:	e0812002 	add	r2, r1, r2
8000137c:	e2403001 	sub	r3, r0, #1
80001380:	e4d1c001 	ldrb	r12, [r1], #1
80001384:	e1510002 	cmp	r1, r2
80001388:	e5e3c001 	strb	r12, [r3, #1]!
8000138c:	1afffffb 	bne	80001380 <strncpy+0x10>
80001390:	e12fff1e 	bx	r14

80001394 <strlen>:
80001394:	e5d02000 	ldrb	r2, [r0]
80001398:	e3520000 	cmp	r2, #0
8000139c:	0a000005 	beq	800013b8 <strlen+0x24>
800013a0:	e1a03000 	mov	r3, r0
800013a4:	e5f31001 	ldrb	r1, [r3, #1]!
800013a8:	e3510000 	cmp	r1, #0
800013ac:	1afffffc 	bne	800013a4 <strlen+0x10>
800013b0:	e0600003 	rsb	r0, r0, r3
800013b4:	e12fff1e 	bx	r14
800013b8:	e1a00002 	mov	r0, r2
800013bc:	e12fff1e 	bx	r14

800013c0 <__aeabi_idivmod>:
800013c0:	e1510002 	cmp	r1, r2
800013c4:	e52de004 	push	{r14}		; (str r14, [r13, #-4]!)
800013c8:	e1a0e000 	mov	r14, r0
800013cc:	ba000009 	blt	800013f8 <__aeabi_idivmod+0x38>
800013d0:	e3a03001 	mov	r3, #1
800013d4:	e0621001 	rsb	r1, r2, r1
800013d8:	e1a0c003 	mov	r12, r3
800013dc:	e1520001 	cmp	r2, r1
800013e0:	e2833001 	add	r3, r3, #1
800013e4:	dafffffa 	ble	800013d4 <__aeabi_idivmod+0x14>
800013e8:	e58ec000 	str	r12, [r14]
800013ec:	e1a0000e 	mov	r0, r14
800013f0:	e58e1004 	str	r1, [r14, #4]
800013f4:	e49df004 	pop	{r15}		; (ldr r15, [r13], #4)
800013f8:	e3a0c000 	mov	r12, #0
800013fc:	eafffff9 	b	800013e8 <__aeabi_idivmod+0x28>

80001400 <__aeabi_idiv>:
80001400:	e1a03000 	mov	r3, r0
80001404:	e1530001 	cmp	r3, r1
80001408:	e3a00000 	mov	r0, #0
8000140c:	ba000004 	blt	80001424 <__aeabi_idiv+0x24>
80001410:	e0613003 	rsb	r3, r1, r3
80001414:	e2800001 	add	r0, r0, #1
80001418:	e1510003 	cmp	r1, r3
8000141c:	dafffffb 	ble	80001410 <__aeabi_idiv+0x10>
80001420:	e12fff1e 	bx	r14
80001424:	e12fff1e 	bx	r14

80001428 <__aeabi_uidivmod>:
80001428:	e1510002 	cmp	r1, r2
8000142c:	e52de004 	push	{r14}		; (str r14, [r13, #-4]!)
80001430:	e1a0e000 	mov	r14, r0
80001434:	3a00000a 	bcc	80001464 <__aeabi_uidivmod+0x3c>
80001438:	e3a03001 	mov	r3, #1
8000143c:	ea000000 	b	80001444 <__aeabi_uidivmod+0x1c>
80001440:	e1a0300c 	mov	r3, r12
80001444:	e0621001 	rsb	r1, r2, r1
80001448:	e283c001 	add	r12, r3, #1
8000144c:	e1520001 	cmp	r2, r1
80001450:	9afffffa 	bls	80001440 <__aeabi_uidivmod+0x18>
80001454:	e58e3000 	str	r3, [r14]
80001458:	e1a0000e 	mov	r0, r14
8000145c:	e58e1004 	str	r1, [r14, #4]
80001460:	e49df004 	pop	{r15}		; (ldr r15, [r13], #4)
80001464:	e3a03000 	mov	r3, #0
80001468:	eafffff9 	b	80001454 <__aeabi_uidivmod+0x2c>

8000146c <__aeabi_uidiv>:
8000146c:	e1a03000 	mov	r3, r0
80001470:	e1530001 	cmp	r3, r1
80001474:	e3a00000 	mov	r0, #0
80001478:	3a000004 	bcc	80001490 <__aeabi_uidiv+0x24>
8000147c:	e0613003 	rsb	r3, r1, r3
80001480:	e2800001 	add	r0, r0, #1
80001484:	e1510003 	cmp	r1, r3
80001488:	9afffffb 	bls	8000147c <__aeabi_uidiv+0x10>
8000148c:	e12fff1e 	bx	r14
80001490:	e12fff1e 	bx	r14

80001494 <ConsolePrintf>:
80001494:	e92d000f 	push	{r0, r1, r2, r3}
80001498:	e92d4bf0 	push	{r4, r5, r6, r7, r8, r9, r11, r14}
8000149c:	e28db01c 	add	r11, r13, #28
800014a0:	e24dd010 	sub	r13, r13, #16
800014a4:	e59b4004 	ldr	r4, [r11, #4]
800014a8:	e3066667 	movw	r6, #26215	; 0x6667
800014ac:	e28b5008 	add	r5, r11, #8
800014b0:	e3466666 	movt	r6, #26214	; 0x6666
800014b4:	e5d41000 	ldrb	r1, [r4]
800014b8:	e3510000 	cmp	r1, #0
800014bc:	0a00002e 	beq	8000157c <ConsolePrintf+0xe8>
800014c0:	e3510025 	cmp	r1, #37	; 0x25
800014c4:	1a000062 	bne	80001654 <ConsolePrintf+0x1c0>
800014c8:	e5d43001 	ldrb	r3, [r4, #1]
800014cc:	e2844002 	add	r4, r4, #2
800014d0:	e2433063 	sub	r3, r3, #99	; 0x63
800014d4:	e3530015 	cmp	r3, #21
800014d8:	979ff103 	ldrls	r15, [r15, r3, lsl #2]
800014dc:	ea000057 	b	80001640 <ConsolePrintf+0x1ac>
800014e0:	80001624 	andhi	r1, r0, r4, lsr #12
800014e4:	800015bc 			; <UNDEFINED> instruction: 0x800015bc
800014e8:	80001640 	andhi	r1, r0, r0, asr #12
800014ec:	80001640 	andhi	r1, r0, r0, asr #12
800014f0:	80001640 	andhi	r1, r0, r0, asr #12
800014f4:	80001640 	andhi	r1, r0, r0, asr #12
800014f8:	80001640 	andhi	r1, r0, r0, asr #12
800014fc:	80001640 	andhi	r1, r0, r0, asr #12
80001500:	80001640 	andhi	r1, r0, r0, asr #12
80001504:	80001640 	andhi	r1, r0, r0, asr #12
80001508:	80001640 	andhi	r1, r0, r0, asr #12
8000150c:	80001640 	andhi	r1, r0, r0, asr #12
80001510:	80001640 	andhi	r1, r0, r0, asr #12
80001514:	80001640 	andhi	r1, r0, r0, asr #12
80001518:	80001640 	andhi	r1, r0, r0, asr #12
8000151c:	80001640 	andhi	r1, r0, r0, asr #12
80001520:	8000158c 	andhi	r1, r0, r12, lsl #11
80001524:	80001640 	andhi	r1, r0, r0, asr #12
80001528:	80001640 	andhi	r1, r0, r0, asr #12
8000152c:	80001640 	andhi	r1, r0, r0, asr #12
80001530:	80001640 	andhi	r1, r0, r0, asr #12
80001534:	80001538 	andhi	r1, r0, r8, lsr r5
80001538:	e5958000 	ldr	r8, [r5]
8000153c:	e2855004 	add	r5, r5, #4
80001540:	e3a0701c 	mov	r7, #28
80001544:	e1a03758 	asr	r3, r8, r7
80001548:	e3a00a09 	mov	r0, #36864	; 0x9000
8000154c:	e203300f 	and	r3, r3, #15
80001550:	e2477004 	sub	r7, r7, #4
80001554:	e3530009 	cmp	r3, #9
80001558:	e2831030 	add	r1, r3, #48	; 0x30
8000155c:	e34404e0 	movt	r0, #17632	; 0x44e0
80001560:	c2831037 	addgt	r1, r3, #55	; 0x37
80001564:	ebfffc29 	bl	80000610 <uart_tx>
80001568:	e3770004 	cmn	r7, #4
8000156c:	1afffff4 	bne	80001544 <ConsolePrintf+0xb0>
80001570:	e5d41000 	ldrb	r1, [r4]
80001574:	e3510000 	cmp	r1, #0
80001578:	1affffd0 	bne	800014c0 <ConsolePrintf+0x2c>
8000157c:	e24bd01c 	sub	r13, r11, #28
80001580:	e8bd4bf0 	pop	{r4, r5, r6, r7, r8, r9, r11, r14}
80001584:	e28dd010 	add	r13, r13, #16
80001588:	e12fff1e 	bx	r14
8000158c:	e5957000 	ldr	r7, [r5]
80001590:	e2855004 	add	r5, r5, #4
80001594:	e5d71000 	ldrb	r1, [r7]
80001598:	e3510000 	cmp	r1, #0
8000159c:	0affffc4 	beq	800014b4 <ConsolePrintf+0x20>
800015a0:	e3a00a09 	mov	r0, #36864	; 0x9000
800015a4:	e34404e0 	movt	r0, #17632	; 0x44e0
800015a8:	ebfffc18 	bl	80000610 <uart_tx>
800015ac:	e5f71001 	ldrb	r1, [r7, #1]!
800015b0:	e3510000 	cmp	r1, #0
800015b4:	1afffff9 	bne	800015a0 <ConsolePrintf+0x10c>
800015b8:	eaffffbd 	b	800014b4 <ConsolePrintf+0x20>
800015bc:	e24bc01d 	sub	r12, r11, #29
800015c0:	e5950000 	ldr	r0, [r5]
800015c4:	e2855004 	add	r5, r5, #4
800015c8:	e1a0200c 	mov	r2, r12
800015cc:	e0c98690 	smull	r8, r9, r0, r6
800015d0:	e1a03fc0 	asr	r3, r0, #31
800015d4:	e0633149 	rsb	r3, r3, r9, asr #2
800015d8:	e0831103 	add	r1, r3, r3, lsl #2
800015dc:	e0401081 	sub	r1, r0, r1, lsl #1
800015e0:	e2530000 	subs	r0, r3, #0
800015e4:	e2811030 	add	r1, r1, #48	; 0x30
800015e8:	e6ef1071 	uxtb	r1, r1
800015ec:	e5621001 	strb	r1, [r2, #-1]!
800015f0:	1afffff5 	bne	800015cc <ConsolePrintf+0x138>
800015f4:	e152000c 	cmp	r2, r12
800015f8:	2affffad 	bcs	800014b4 <ConsolePrintf+0x20>
800015fc:	e24b801e 	sub	r8, r11, #30
80001600:	e1a07002 	mov	r7, r2
80001604:	ea000000 	b	8000160c <ConsolePrintf+0x178>
80001608:	e5f71001 	ldrb	r1, [r7, #1]!
8000160c:	e3a00a09 	mov	r0, #36864	; 0x9000
80001610:	e34404e0 	movt	r0, #17632	; 0x44e0
80001614:	ebfffbfd 	bl	80000610 <uart_tx>
80001618:	e1570008 	cmp	r7, r8
8000161c:	1afffff9 	bne	80001608 <ConsolePrintf+0x174>
80001620:	eaffffa3 	b	800014b4 <ConsolePrintf+0x20>
80001624:	e3a00a09 	mov	r0, #36864	; 0x9000
80001628:	e2857004 	add	r7, r5, #4
8000162c:	e5951000 	ldr	r1, [r5]
80001630:	e34404e0 	movt	r0, #17632	; 0x44e0
80001634:	ebfffbf5 	bl	80000610 <uart_tx>
80001638:	e1a05007 	mov	r5, r7
8000163c:	eaffff9c 	b	800014b4 <ConsolePrintf+0x20>
80001640:	e3a00a09 	mov	r0, #36864	; 0x9000
80001644:	e3a0103f 	mov	r1, #63	; 0x3f
80001648:	e34404e0 	movt	r0, #17632	; 0x44e0
8000164c:	ebfffbef 	bl	80000610 <uart_tx>
80001650:	eaffff97 	b	800014b4 <ConsolePrintf+0x20>
80001654:	e3a00a09 	mov	r0, #36864	; 0x9000
80001658:	e2844001 	add	r4, r4, #1
8000165c:	e34404e0 	movt	r0, #17632	; 0x44e0
80001660:	ebfffbea 	bl	80000610 <uart_tx>
80001664:	eaffff92 	b	800014b4 <ConsolePrintf+0x20>

80001668 <mmu_regionMap>:
80001668:	e92d4070 	push	{r4, r5, r6, r14}
8000166c:	e3a0e002 	mov	r14, #2
80001670:	e5902000 	ldr	r2, [r0]
80001674:	e340e004 	movt	r14, #4
80001678:	e5905004 	ldr	r5, [r0, #4]
8000167c:	e5903008 	ldr	r3, [r0, #8]
80001680:	e00ee002 	and	r14, r14, r2
80001684:	e590600c 	ldr	r6, [r0, #12]
80001688:	e005c002 	and	r12, r5, r2
8000168c:	e5904014 	ldr	r4, [r0, #20]
80001690:	e2432107 	sub	r2, r3, #-1073741823	; 0xc0000001
80001694:	e5901010 	ldr	r1, [r0, #16]
80001698:	e1a0ca2c 	lsr	r12, r12, #20
8000169c:	e1864004 	orr	r4, r6, r4
800016a0:	e0822a25 	add	r2, r2, r5, lsr #20
800016a4:	e1844001 	orr	r4, r4, r1
800016a8:	e2533001 	subs	r3, r3, #1
800016ac:	e5901018 	ldr	r1, [r0, #24]
800016b0:	e1a0ca0c 	lsl	r12, r12, #20
800016b4:	e184000e 	orr	r0, r4, r14
800016b8:	e180000c 	orr	r0, r0, r12
800016bc:	e0812102 	add	r2, r1, r2, lsl #2
800016c0:	48bd8070 	popmi	{r4, r5, r6, r15}
800016c4:	e0801a03 	add	r1, r0, r3, lsl #20
800016c8:	e2433001 	sub	r3, r3, #1
800016cc:	e3730001 	cmn	r3, #1
800016d0:	e4021004 	str	r1, [r2], #-4
800016d4:	1afffffa 	bne	800016c4 <mmu_regionMap+0x5c>
800016d8:	e8bd8070 	pop	{r4, r5, r6, r15}

800016dc <mmu_init>:
800016dc:	e307c344 	movw	r12, #29508	; 0x7344
800016e0:	e348c000 	movt	r12, #32768	; 0x8000
800016e4:	e8bc000f 	ldm	r12!, {r0, r1, r2, r3}
800016e8:	e92d41f0 	push	{r4, r5, r6, r7, r8, r14}
800016ec:	e24dd070 	sub	r13, r13, #112	; 0x70
800016f0:	e28c700c 	add	r7, r12, #12
800016f4:	e28d601c 	add	r6, r13, #28
800016f8:	e1a0800d 	mov	r8, r13
800016fc:	e28c5028 	add	r5, r12, #40	; 0x28
80001700:	e8a8000f 	stmia	r8!, {r0, r1, r2, r3}
80001704:	e28d4038 	add	r4, r13, #56	; 0x38
80001708:	e89c0007 	ldm	r12, {r0, r1, r2}
8000170c:	e28cc044 	add	r12, r12, #68	; 0x44
80001710:	e28de054 	add	r14, r13, #84	; 0x54
80001714:	e8880007 	stm	r8, {r0, r1, r2}
80001718:	e8b7000f 	ldm	r7!, {r0, r1, r2, r3}
8000171c:	e8a6000f 	stmia	r6!, {r0, r1, r2, r3}
80001720:	e8970007 	ldm	r7, {r0, r1, r2}
80001724:	e8860007 	stm	r6, {r0, r1, r2}
80001728:	e8b5000f 	ldm	r5!, {r0, r1, r2, r3}
8000172c:	e8a4000f 	stmia	r4!, {r0, r1, r2, r3}
80001730:	e8950007 	ldm	r5, {r0, r1, r2}
80001734:	e8840007 	stm	r4, {r0, r1, r2}
80001738:	e8bc000f 	ldm	r12!, {r0, r1, r2, r3}
8000173c:	e8ae000f 	stmia	r14!, {r0, r1, r2, r3}
80001740:	e89c0007 	ldm	r12, {r0, r1, r2}
80001744:	e88e0007 	stm	r14, {r0, r1, r2}
80001748:	ebfffe18 	bl	80000fb0 <CP15TlbInvalidate>
8000174c:	ebfffe26 	bl	80000fec <CP15DomainAccessClientSet>
80001750:	e3a00233 	mov	r0, #805306371	; 0x30000003
80001754:	ebfffe28 	bl	80000ffc <CP15ControlFeatureDisable>
80001758:	ebfffe31 	bl	80001024 <CP15TtbCtlTtb0Config>
8000175c:	e3082000 	movw	r2, #32768	; 0x8000
80001760:	e3482000 	movt	r2, #32768	; 0x8000
80001764:	e3a03a01 	mov	r3, #4096	; 0x1000
80001768:	e3a01000 	mov	r1, #0
8000176c:	e7821103 	str	r1, [r2, r3, lsl #2]
80001770:	e2533001 	subs	r3, r3, #1
80001774:	1afffffc 	bne	8000176c <mmu_init+0x90>
80001778:	e1a0000d 	mov	r0, r13
8000177c:	ebffffb9 	bl	80001668 <mmu_regionMap>
80001780:	e28d001c 	add	r0, r13, #28
80001784:	ebffffb7 	bl	80001668 <mmu_regionMap>
80001788:	e28d0038 	add	r0, r13, #56	; 0x38
8000178c:	ebffffb5 	bl	80001668 <mmu_regionMap>
80001790:	e28d0054 	add	r0, r13, #84	; 0x54
80001794:	ebffffb3 	bl	80001668 <mmu_regionMap>
80001798:	e3080000 	movw	r0, #32768	; 0x8000
8000179c:	e3480000 	movt	r0, #32768	; 0x8000
800017a0:	ebfffdff 	bl	80000fa4 <CP15Ttb0Set>
800017a4:	ebfffe0b 	bl	80000fd8 <CP15MMUEnable>
800017a8:	e28dd070 	add	r13, r13, #112	; 0x70
800017ac:	e8bd81f0 	pop	{r4, r5, r6, r7, r8, r15}

800017b0 <DMAInit>:
800017b0:	e92d4030 	push	{r4, r5, r14}
800017b4:	e30de080 	movw	r14, #53376	; 0xd080
800017b8:	e348e001 	movt	r14, #32769	; 0x8001
800017bc:	e3e0c000 	mvn	r12, #0
800017c0:	e3a03000 	mov	r3, #0
800017c4:	e58e3000 	str	r3, [r14]
800017c8:	e580c308 	str	r12, [r0, #776]	; 0x308
800017cc:	e2802c01 	add	r2, r0, #256	; 0x100
800017d0:	e580c30c 	str	r12, [r0, #780]	; 0x30c
800017d4:	e580c314 	str	r12, [r0, #788]	; 0x314
800017d8:	e580c31c 	str	r12, [r0, #796]	; 0x31c
800017dc:	e59e5000 	ldr	r5, [r14]
800017e0:	e2855068 	add	r5, r5, #104	; 0x68
800017e4:	e780c185 	str	r12, [r0, r5, lsl #3]
800017e8:	e59e5000 	ldr	r5, [r14]
800017ec:	e1a05185 	lsl	r5, r5, #3
800017f0:	e2855fd1 	add	r5, r5, #836	; 0x344
800017f4:	e785c000 	str	r12, [r5, r0]
800017f8:	e1a0c283 	lsl	r12, r3, #5
800017fc:	e2833001 	add	r3, r3, #1
80001800:	e3530040 	cmp	r3, #64	; 0x40
80001804:	e482c004 	str	r12, [r2], #4
80001808:	1afffffa 	bne	800017f8 <DMAInit+0x48>
8000180c:	e2014007 	and	r4, r1, #7
80001810:	e3a02000 	mov	r2, #0
80001814:	e3a05007 	mov	r5, #7
80001818:	e1a031a2 	lsr	r3, r2, #3
8000181c:	e2021007 	and	r1, r2, #7
80001820:	e2833090 	add	r3, r3, #144	; 0x90
80001824:	e2822001 	add	r2, r2, #1
80001828:	e1a01101 	lsl	r1, r1, #2
8000182c:	e3520040 	cmp	r2, #64	; 0x40
80001830:	e790c103 	ldr	r12, [r0, r3, lsl #2]
80001834:	e1ccc115 	bic	r12, r12, r5, lsl r1
80001838:	e780c103 	str	r12, [r0, r3, lsl #2]
8000183c:	e790c103 	ldr	r12, [r0, r3, lsl #2]
80001840:	e18c1114 	orr	r1, r12, r4, lsl r1
80001844:	e7801103 	str	r1, [r0, r3, lsl #2]
80001848:	1afffff2 	bne	80001818 <DMAInit+0x68>
8000184c:	e59e1000 	ldr	r1, [r14]
80001850:	e2802e26 	add	r2, r0, #608	; 0x260
80001854:	e3a03000 	mov	r3, #0
80001858:	e3a0c007 	mov	r12, #7
8000185c:	e28110e0 	add	r1, r1, #224	; 0xe0
80001860:	e3e0e000 	mvn	r14, #0
80001864:	e780e101 	str	r14, [r0, r1, lsl #2]
80001868:	e5921000 	ldr	r1, [r2]
8000186c:	e1c1131c 	bic	r1, r1, r12, lsl r3
80001870:	e5821000 	str	r1, [r2]
80001874:	e5921000 	ldr	r1, [r2]
80001878:	e1811314 	orr	r1, r1, r4, lsl r3
8000187c:	e2833004 	add	r3, r3, #4
80001880:	e3530020 	cmp	r3, #32
80001884:	e5821000 	str	r1, [r2]
80001888:	1afffff6 	bne	80001868 <DMAInit+0xb8>
8000188c:	e8bd8030 	pop	{r4, r5, r15}

80001890 <DMAPeripheralIdGet>:
80001890:	e5900000 	ldr	r0, [r0]
80001894:	e12fff1e 	bx	r14

80001898 <DMAEnableChInShadowReg>:
80001898:	e3510000 	cmp	r1, #0
8000189c:	1a00000a 	bne	800018cc <DMAEnableChInShadowReg+0x34>
800018a0:	e352001f 	cmp	r2, #31
800018a4:	e30d3080 	movw	r3, #53376	; 0xd080
800018a8:	8a000011 	bhi	800018f4 <DMAEnableChInShadowReg+0x5c>
800018ac:	e3483001 	movt	r3, #32769	; 0x8001
800018b0:	e3a0c001 	mov	r12, #1
800018b4:	e5933000 	ldr	r3, [r3]
800018b8:	e2833068 	add	r3, r3, #104	; 0x68
800018bc:	e7901183 	ldr	r1, [r0, r3, lsl #3]
800018c0:	e181221c 	orr	r2, r1, r12, lsl r2
800018c4:	e7802183 	str	r2, [r0, r3, lsl #3]
800018c8:	e12fff1e 	bx	r14
800018cc:	e3510001 	cmp	r1, #1
800018d0:	112fff1e 	bxne	r14
800018d4:	e30d3080 	movw	r3, #53376	; 0xd080
800018d8:	e3483001 	movt	r3, #32769	; 0x8001
800018dc:	e5933000 	ldr	r3, [r3]
800018e0:	e28330e0 	add	r3, r3, #224	; 0xe0
800018e4:	e790c103 	ldr	r12, [r0, r3, lsl #2]
800018e8:	e18c2211 	orr	r2, r12, r1, lsl r2
800018ec:	e7802103 	str	r2, [r0, r3, lsl #2]
800018f0:	e12fff1e 	bx	r14
800018f4:	e3483001 	movt	r3, #32769	; 0x8001
800018f8:	e2422020 	sub	r2, r2, #32
800018fc:	e5933000 	ldr	r3, [r3]
80001900:	e3a0c001 	mov	r12, #1
80001904:	e1a03183 	lsl	r3, r3, #3
80001908:	e2833fd1 	add	r3, r3, #836	; 0x344
8000190c:	e7931000 	ldr	r1, [r3, r0]
80001910:	e181221c 	orr	r2, r1, r12, lsl r2
80001914:	e7832000 	str	r2, [r3, r0]
80001918:	e12fff1e 	bx	r14

8000191c <DMADisableChInShadowReg>:
8000191c:	e3510000 	cmp	r1, #0
80001920:	1a00000a 	bne	80001950 <DMADisableChInShadowReg+0x34>
80001924:	e352001f 	cmp	r2, #31
80001928:	e30d3080 	movw	r3, #53376	; 0xd080
8000192c:	8a000012 	bhi	8000197c <DMADisableChInShadowReg+0x60>
80001930:	e3483001 	movt	r3, #32769	; 0x8001
80001934:	e3a0c001 	mov	r12, #1
80001938:	e5933000 	ldr	r3, [r3]
8000193c:	e2833068 	add	r3, r3, #104	; 0x68
80001940:	e7901183 	ldr	r1, [r0, r3, lsl #3]
80001944:	e1c1221c 	bic	r2, r1, r12, lsl r2
80001948:	e7802183 	str	r2, [r0, r3, lsl #3]
8000194c:	e12fff1e 	bx	r14
80001950:	e3510001 	cmp	r1, #1
80001954:	112fff1e 	bxne	r14
80001958:	e30d3080 	movw	r3, #53376	; 0xd080
8000195c:	e3e0c001 	mvn	r12, #1
80001960:	e3483001 	movt	r3, #32769	; 0x8001
80001964:	e5933000 	ldr	r3, [r3]
80001968:	e28330e0 	add	r3, r3, #224	; 0xe0
8000196c:	e7901103 	ldr	r1, [r0, r3, lsl #2]
80001970:	e001221c 	and	r2, r1, r12, lsl r2
80001974:	e7802103 	str	r2, [r0, r3, lsl #2]
80001978:	e12fff1e 	bx	r14
8000197c:	e3483001 	movt	r3, #32769	; 0x8001
80001980:	e2422020 	sub	r2, r2, #32
80001984:	e5933000 	ldr	r3, [r3]
80001988:	e3a0c001 	mov	r12, #1
8000198c:	e1a03183 	lsl	r3, r3, #3
80001990:	e2833fd1 	add	r3, r3, #836	; 0x344
80001994:	e7931000 	ldr	r1, [r3, r0]
80001998:	e1c1221c 	bic	r2, r1, r12, lsl r2
8000199c:	e7832000 	str	r2, [r3, r0]
800019a0:	e12fff1e 	bx	r14

800019a4 <DMAChannelToParamMap>:
800019a4:	e2811040 	add	r1, r1, #64	; 0x40
800019a8:	e1a02282 	lsl	r2, r2, #5
800019ac:	e7802101 	str	r2, [r0, r1, lsl #2]
800019b0:	e12fff1e 	bx	r14

800019b4 <DMAMapChToEvtQ>:
800019b4:	e3510000 	cmp	r1, #0
800019b8:	0a000006 	beq	800019d8 <DMAMapChToEvtQ+0x24>
800019bc:	e3510001 	cmp	r1, #1
800019c0:	02033007 	andeq	r3, r3, #7
800019c4:	01a02102 	lsleq	r2, r2, #2
800019c8:	05901260 	ldreq	r1, [r0, #608]	; 0x260
800019cc:	01812213 	orreq	r2, r1, r3, lsl r2
800019d0:	05802260 	streq	r2, [r0, #608]	; 0x260
800019d4:	e12fff1e 	bx	r14
800019d8:	e1a011a2 	lsr	r1, r2, #3
800019dc:	e2022007 	and	r2, r2, #7
800019e0:	e2811090 	add	r1, r1, #144	; 0x90
800019e4:	e52de004 	push	{r14}		; (str r14, [r13, #-4]!)
800019e8:	e1a02102 	lsl	r2, r2, #2
800019ec:	e790c101 	ldr	r12, [r0, r1, lsl #2]
800019f0:	e3a0e007 	mov	r14, #7
800019f4:	e003300e 	and	r3, r3, r14
800019f8:	e1ccc21e 	bic	r12, r12, r14, lsl r2
800019fc:	e780c101 	str	r12, [r0, r1, lsl #2]
80001a00:	e790c101 	ldr	r12, [r0, r1, lsl #2]
80001a04:	e18c3213 	orr	r3, r12, r3, lsl r2
80001a08:	e7803101 	str	r3, [r0, r1, lsl #2]
80001a0c:	e49df004 	pop	{r15}		; (ldr r15, [r13], #4)

80001a10 <DMAUnmapChToEvtQ>:
80001a10:	e3510000 	cmp	r1, #0
80001a14:	0a000008 	beq	80001a3c <DMAUnmapChToEvtQ+0x2c>
80001a18:	e3510001 	cmp	r1, #1
80001a1c:	112fff1e 	bxne	r14
80001a20:	e5903260 	ldr	r3, [r0, #608]	; 0x260
80001a24:	e1a02102 	lsl	r2, r2, #2
80001a28:	e3a01007 	mov	r1, #7
80001a2c:	e1e02211 	mvn	r2, r1, lsl r2
80001a30:	e1822003 	orr	r2, r2, r3
80001a34:	e5802260 	str	r2, [r0, #608]	; 0x260
80001a38:	e12fff1e 	bx	r14
80001a3c:	e1a011a2 	lsr	r1, r2, #3
80001a40:	e2022007 	and	r2, r2, #7
80001a44:	e2811090 	add	r1, r1, #144	; 0x90
80001a48:	e3a03007 	mov	r3, #7
80001a4c:	e1a02102 	lsl	r2, r2, #2
80001a50:	e790c101 	ldr	r12, [r0, r1, lsl #2]
80001a54:	e1e02213 	mvn	r2, r3, lsl r2
80001a58:	e18c2002 	orr	r2, r12, r2
80001a5c:	e7802101 	str	r2, [r0, r1, lsl #2]
80001a60:	e12fff1e 	bx	r14

80001a64 <DMAMapQdmaChToPaRAM>:
80001a64:	e592c000 	ldr	r12, [r2]
80001a68:	e2813040 	add	r3, r1, #64	; 0x40
80001a6c:	e2811080 	add	r1, r1, #128	; 0x80
80001a70:	e153000c 	cmp	r3, r12
80001a74:	15823000 	strne	r3, [r2]
80001a78:	e7903101 	ldr	r3, [r0, r1, lsl #2]
80001a7c:	e3c33dff 	bic	r3, r3, #16320	; 0x3fc0
80001a80:	e3c33020 	bic	r3, r3, #32
80001a84:	e7803101 	str	r3, [r0, r1, lsl #2]
80001a88:	e5923000 	ldr	r3, [r2]
80001a8c:	e7902101 	ldr	r2, [r0, r1, lsl #2]
80001a90:	e7e83053 	ubfx	r3, r3, #0, #9
80001a94:	e1823283 	orr	r3, r2, r3, lsl #5
80001a98:	e7803101 	str	r3, [r0, r1, lsl #2]
80001a9c:	e12fff1e 	bx	r14

80001aa0 <DMASetQdmaTrigWord>:
80001aa0:	e2811080 	add	r1, r1, #128	; 0x80
80001aa4:	e2022007 	and	r2, r2, #7
80001aa8:	e7903101 	ldr	r3, [r0, r1, lsl #2]
80001aac:	e1832102 	orr	r2, r3, r2, lsl #2
80001ab0:	e7802101 	str	r2, [r0, r1, lsl #2]
80001ab4:	e12fff1e 	bx	r14

80001ab8 <DMAClrMissEvt>:
80001ab8:	e351001f 	cmp	r1, #31
80001abc:	9a00000d 	bls	80001af8 <DMAClrMissEvt+0x40>
80001ac0:	e30d3080 	movw	r3, #53376	; 0xd080
80001ac4:	e2411020 	sub	r1, r1, #32
80001ac8:	e3483001 	movt	r3, #32769	; 0x8001
80001acc:	e3a02001 	mov	r2, #1
80001ad0:	e5933000 	ldr	r3, [r3]
80001ad4:	e1a01112 	lsl	r1, r2, r1
80001ad8:	e1a03483 	lsl	r3, r3, #9
80001adc:	e2833d81 	add	r3, r3, #8256	; 0x2040
80001ae0:	e2833004 	add	r3, r3, #4
80001ae4:	e7831000 	str	r1, [r3, r0]
80001ae8:	e590330c 	ldr	r3, [r0, #780]	; 0x30c
80001aec:	e1811003 	orr	r1, r1, r3
80001af0:	e580130c 	str	r1, [r0, #780]	; 0x30c
80001af4:	e12fff1e 	bx	r14
80001af8:	e30d2080 	movw	r2, #53376	; 0xd080
80001afc:	e3a03001 	mov	r3, #1
80001b00:	e3482001 	movt	r2, #32769	; 0x8001
80001b04:	e1a01113 	lsl	r1, r3, r1
80001b08:	e5923000 	ldr	r3, [r2]
80001b0c:	e1a03483 	lsl	r3, r3, #9
80001b10:	e2833d81 	add	r3, r3, #8256	; 0x2040
80001b14:	e7831000 	str	r1, [r3, r0]
80001b18:	e5903308 	ldr	r3, [r0, #776]	; 0x308
80001b1c:	e1811003 	orr	r1, r1, r3
80001b20:	e5801308 	str	r1, [r0, #776]	; 0x308
80001b24:	e12fff1e 	bx	r14

80001b28 <DMAQdmaClrMissEvt>:
80001b28:	e30d3080 	movw	r3, #53376	; 0xd080
80001b2c:	e3022094 	movw	r2, #8340	; 0x2094
80001b30:	e3483001 	movt	r3, #32769	; 0x8001
80001b34:	e593c000 	ldr	r12, [r3]
80001b38:	e3a03001 	mov	r3, #1
80001b3c:	e1a01113 	lsl	r1, r3, r1
80001b40:	e082248c 	add	r2, r2, r12, lsl #9
80001b44:	e7821000 	str	r1, [r2, r0]
80001b48:	e5903314 	ldr	r3, [r0, #788]	; 0x314
80001b4c:	e1831001 	orr	r1, r3, r1
80001b50:	e5801314 	str	r1, [r0, #788]	; 0x314
80001b54:	e12fff1e 	bx	r14

80001b58 <DMAClrCCErr>:
80001b58:	e580131c 	str	r1, [r0, #796]	; 0x31c
80001b5c:	e12fff1e 	bx	r14

80001b60 <DMASetEvt>:
80001b60:	e351001f 	cmp	r1, #31
80001b64:	e30d3080 	movw	r3, #53376	; 0xd080
80001b68:	9a00000a 	bls	80001b98 <DMASetEvt+0x38>
80001b6c:	e3483001 	movt	r3, #32769	; 0x8001
80001b70:	e2411020 	sub	r1, r1, #32
80001b74:	e5933000 	ldr	r3, [r3]
80001b78:	e3a0c001 	mov	r12, #1
80001b7c:	e1a03483 	lsl	r3, r3, #9
80001b80:	e2833a02 	add	r3, r3, #8192	; 0x2000
80001b84:	e2833014 	add	r3, r3, #20
80001b88:	e7932000 	ldr	r2, [r3, r0]
80001b8c:	e182111c 	orr	r1, r2, r12, lsl r1
80001b90:	e7831000 	str	r1, [r3, r0]
80001b94:	e12fff1e 	bx	r14
80001b98:	e3483001 	movt	r3, #32769	; 0x8001
80001b9c:	e3a0c001 	mov	r12, #1
80001ba0:	e5933000 	ldr	r3, [r3]
80001ba4:	e1a03483 	lsl	r3, r3, #9
80001ba8:	e2833a02 	add	r3, r3, #8192	; 0x2000
80001bac:	e2833010 	add	r3, r3, #16
80001bb0:	e7932000 	ldr	r2, [r3, r0]
80001bb4:	e182111c 	orr	r1, r2, r12, lsl r1
80001bb8:	e7831000 	str	r1, [r3, r0]
80001bbc:	e12fff1e 	bx	r14

80001bc0 <DMAClrEvt>:
80001bc0:	e351001f 	cmp	r1, #31
80001bc4:	e30d3080 	movw	r3, #53376	; 0xd080
80001bc8:	9a00000a 	bls	80001bf8 <DMAClrEvt+0x38>
80001bcc:	e3483001 	movt	r3, #32769	; 0x8001
80001bd0:	e2411020 	sub	r1, r1, #32
80001bd4:	e5933000 	ldr	r3, [r3]
80001bd8:	e3a0c001 	mov	r12, #1
80001bdc:	e1a03483 	lsl	r3, r3, #9
80001be0:	e2833a02 	add	r3, r3, #8192	; 0x2000
80001be4:	e283300c 	add	r3, r3, #12
80001be8:	e7932000 	ldr	r2, [r3, r0]
80001bec:	e182111c 	orr	r1, r2, r12, lsl r1
80001bf0:	e7831000 	str	r1, [r3, r0]
80001bf4:	e12fff1e 	bx	r14
80001bf8:	e3483001 	movt	r3, #32769	; 0x8001
80001bfc:	e3a0c001 	mov	r12, #1
80001c00:	e5933000 	ldr	r3, [r3]
80001c04:	e1a03483 	lsl	r3, r3, #9
80001c08:	e2833a02 	add	r3, r3, #8192	; 0x2000
80001c0c:	e2833008 	add	r3, r3, #8
80001c10:	e7932000 	ldr	r2, [r3, r0]
80001c14:	e182111c 	orr	r1, r2, r12, lsl r1
80001c18:	e7831000 	str	r1, [r3, r0]
80001c1c:	e12fff1e 	bx	r14

80001c20 <DMAEnableDmaEvt>:
80001c20:	e351001f 	cmp	r1, #31
80001c24:	e30d3080 	movw	r3, #53376	; 0xd080
80001c28:	9a00000a 	bls	80001c58 <DMAEnableDmaEvt+0x38>
80001c2c:	e3483001 	movt	r3, #32769	; 0x8001
80001c30:	e2411020 	sub	r1, r1, #32
80001c34:	e5933000 	ldr	r3, [r3]
80001c38:	e3a0c001 	mov	r12, #1
80001c3c:	e1a03483 	lsl	r3, r3, #9
80001c40:	e2833a02 	add	r3, r3, #8192	; 0x2000
80001c44:	e2833034 	add	r3, r3, #52	; 0x34
80001c48:	e7932000 	ldr	r2, [r3, r0]
80001c4c:	e182111c 	orr	r1, r2, r12, lsl r1
80001c50:	e7831000 	str	r1, [r3, r0]
80001c54:	e12fff1e 	bx	r14
80001c58:	e3483001 	movt	r3, #32769	; 0x8001
80001c5c:	e3a0c001 	mov	r12, #1
80001c60:	e5933000 	ldr	r3, [r3]
80001c64:	e1a03483 	lsl	r3, r3, #9
80001c68:	e2833a02 	add	r3, r3, #8192	; 0x2000
80001c6c:	e2833030 	add	r3, r3, #48	; 0x30
80001c70:	e7932000 	ldr	r2, [r3, r0]
80001c74:	e182111c 	orr	r1, r2, r12, lsl r1
80001c78:	e7831000 	str	r1, [r3, r0]
80001c7c:	e12fff1e 	bx	r14

80001c80 <DMADisableDmaEvt>:
80001c80:	e30d3080 	movw	r3, #53376	; 0xd080
80001c84:	e351001f 	cmp	r1, #31
80001c88:	e3483001 	movt	r3, #32769	; 0x8001
80001c8c:	e3a0c001 	mov	r12, #1
80001c90:	e5933000 	ldr	r3, [r3]
80001c94:	e1a03483 	lsl	r3, r3, #9
80001c98:	e2833a02 	add	r3, r3, #8192	; 0x2000
80001c9c:	92833028 	addls	r3, r3, #40	; 0x28
80001ca0:	8283302c 	addhi	r3, r3, #44	; 0x2c
80001ca4:	e7932000 	ldr	r2, [r3, r0]
80001ca8:	e182111c 	orr	r1, r2, r12, lsl r1
80001cac:	e7831000 	str	r1, [r3, r0]
80001cb0:	e12fff1e 	bx	r14

80001cb4 <DMAEnableQdmaEvt>:
80001cb4:	e30d2080 	movw	r2, #53376	; 0xd080
80001cb8:	e302308c 	movw	r3, #8332	; 0x208c
80001cbc:	e3482001 	movt	r2, #32769	; 0x8001
80001cc0:	e592c000 	ldr	r12, [r2]
80001cc4:	e3a02001 	mov	r2, #1
80001cc8:	e1a01112 	lsl	r1, r2, r1
80001ccc:	e083348c 	add	r3, r3, r12, lsl #9
80001cd0:	e7831000 	str	r1, [r3, r0]
80001cd4:	e12fff1e 	bx	r14

80001cd8 <DMADisableQdmaEvt>:
80001cd8:	e30d2080 	movw	r2, #53376	; 0xd080
80001cdc:	e3023088 	movw	r3, #8328	; 0x2088
80001ce0:	e3482001 	movt	r2, #32769	; 0x8001
80001ce4:	e592c000 	ldr	r12, [r2]
80001ce8:	e3a02001 	mov	r2, #1
80001cec:	e1a01112 	lsl	r1, r2, r1
80001cf0:	e083348c 	add	r3, r3, r12, lsl #9
80001cf4:	e7831000 	str	r1, [r3, r0]
80001cf8:	e12fff1e 	bx	r14

80001cfc <DMAGetCCErrStatus>:
80001cfc:	e5900318 	ldr	r0, [r0, #792]	; 0x318
80001d00:	e12fff1e 	bx	r14

80001d04 <DMAGetIntrStatus>:
80001d04:	e30d2080 	movw	r2, #53376	; 0xd080
80001d08:	e3023068 	movw	r3, #8296	; 0x2068
80001d0c:	e3482001 	movt	r2, #32769	; 0x8001
80001d10:	e5922000 	ldr	r2, [r2]
80001d14:	e0833482 	add	r3, r3, r2, lsl #9
80001d18:	e7930000 	ldr	r0, [r3, r0]
80001d1c:	e12fff1e 	bx	r14

80001d20 <DMAIntrStatusHighGet>:
80001d20:	e30d2080 	movw	r2, #53376	; 0xd080
80001d24:	e302306c 	movw	r3, #8300	; 0x206c
80001d28:	e3482001 	movt	r2, #32769	; 0x8001
80001d2c:	e5922000 	ldr	r2, [r2]
80001d30:	e0833482 	add	r3, r3, r2, lsl #9
80001d34:	e7930000 	ldr	r0, [r3, r0]
80001d38:	e12fff1e 	bx	r14

80001d3c <DMAGetErrIntrStatus>:
80001d3c:	e5900300 	ldr	r0, [r0, #768]	; 0x300
80001d40:	e12fff1e 	bx	r14

80001d44 <DMAErrIntrHighStatusGet>:
80001d44:	e5900304 	ldr	r0, [r0, #772]	; 0x304
80001d48:	e12fff1e 	bx	r14

80001d4c <DMAQdmaGetErrIntrStatus>:
80001d4c:	e5900310 	ldr	r0, [r0, #784]	; 0x310
80001d50:	e12fff1e 	bx	r14

80001d54 <DMAEnableEvtIntr>:
80001d54:	e351001f 	cmp	r1, #31
80001d58:	e30d3080 	movw	r3, #53376	; 0xd080
80001d5c:	9a00000a 	bls	80001d8c <DMAEnableEvtIntr+0x38>
80001d60:	e3483001 	movt	r3, #32769	; 0x8001
80001d64:	e2411020 	sub	r1, r1, #32
80001d68:	e5933000 	ldr	r3, [r3]
80001d6c:	e3a0c001 	mov	r12, #1
80001d70:	e1a03483 	lsl	r3, r3, #9
80001d74:	e2833d81 	add	r3, r3, #8256	; 0x2040
80001d78:	e2833024 	add	r3, r3, #36	; 0x24
80001d7c:	e7932000 	ldr	r2, [r3, r0]
80001d80:	e182111c 	orr	r1, r2, r12, lsl r1
80001d84:	e7831000 	str	r1, [r3, r0]
80001d88:	e12fff1e 	bx	r14
80001d8c:	e3483001 	movt	r3, #32769	; 0x8001
80001d90:	e3a0c001 	mov	r12, #1
80001d94:	e5933000 	ldr	r3, [r3]
80001d98:	e1a03483 	lsl	r3, r3, #9
80001d9c:	e2833d81 	add	r3, r3, #8256	; 0x2040
80001da0:	e2833020 	add	r3, r3, #32
80001da4:	e7932000 	ldr	r2, [r3, r0]
80001da8:	e182111c 	orr	r1, r2, r12, lsl r1
80001dac:	e7831000 	str	r1, [r3, r0]
80001db0:	e12fff1e 	bx	r14

80001db4 <DMADisableEvtIntr>:
80001db4:	e351001f 	cmp	r1, #31
80001db8:	e30d3080 	movw	r3, #53376	; 0xd080
80001dbc:	9a00000a 	bls	80001dec <DMADisableEvtIntr+0x38>
80001dc0:	e3483001 	movt	r3, #32769	; 0x8001
80001dc4:	e2411020 	sub	r1, r1, #32
80001dc8:	e5933000 	ldr	r3, [r3]
80001dcc:	e3a0c001 	mov	r12, #1
80001dd0:	e1a03483 	lsl	r3, r3, #9
80001dd4:	e2833d81 	add	r3, r3, #8256	; 0x2040
80001dd8:	e283301c 	add	r3, r3, #28
80001ddc:	e7932000 	ldr	r2, [r3, r0]
80001de0:	e182111c 	orr	r1, r2, r12, lsl r1
80001de4:	e7831000 	str	r1, [r3, r0]
80001de8:	e12fff1e 	bx	r14
80001dec:	e3483001 	movt	r3, #32769	; 0x8001
80001df0:	e3a0c001 	mov	r12, #1
80001df4:	e5933000 	ldr	r3, [r3]
80001df8:	e1a03483 	lsl	r3, r3, #9
80001dfc:	e2833d81 	add	r3, r3, #8256	; 0x2040
80001e00:	e2833018 	add	r3, r3, #24
80001e04:	e7932000 	ldr	r2, [r3, r0]
80001e08:	e182111c 	orr	r1, r2, r12, lsl r1
80001e0c:	e7831000 	str	r1, [r3, r0]
80001e10:	e12fff1e 	bx	r14

80001e14 <DMAClrIntr>:
80001e14:	e351001f 	cmp	r1, #31
80001e18:	9a00000a 	bls	80001e48 <DMAClrIntr+0x34>
80001e1c:	e30d3080 	movw	r3, #53376	; 0xd080
80001e20:	e2411020 	sub	r1, r1, #32
80001e24:	e3483001 	movt	r3, #32769	; 0x8001
80001e28:	e3a02001 	mov	r2, #1
80001e2c:	e5933000 	ldr	r3, [r3]
80001e30:	e1a01112 	lsl	r1, r2, r1
80001e34:	e1a03483 	lsl	r3, r3, #9
80001e38:	e2833d81 	add	r3, r3, #8256	; 0x2040
80001e3c:	e2833034 	add	r3, r3, #52	; 0x34
80001e40:	e7831000 	str	r1, [r3, r0]
80001e44:	e12fff1e 	bx	r14
80001e48:	e30d2080 	movw	r2, #53376	; 0xd080
80001e4c:	e3a03001 	mov	r3, #1
80001e50:	e3482001 	movt	r2, #32769	; 0x8001
80001e54:	e1a01113 	lsl	r1, r3, r1
80001e58:	e5923000 	ldr	r3, [r2]
80001e5c:	e1a03483 	lsl	r3, r3, #9
80001e60:	e2833d81 	add	r3, r3, #8256	; 0x2040
80001e64:	e2833030 	add	r3, r3, #48	; 0x30
80001e68:	e7831000 	str	r1, [r3, r0]
80001e6c:	e12fff1e 	bx	r14

80001e70 <DMAGetPaRAM>:
80001e70:	e2811c02 	add	r1, r1, #512	; 0x200
80001e74:	e2422004 	sub	r2, r2, #4
80001e78:	e0800281 	add	r0, r0, r1, lsl #5
80001e7c:	e2801020 	add	r1, r0, #32
80001e80:	e4903004 	ldr	r3, [r0], #4
80001e84:	e1500001 	cmp	r0, r1
80001e88:	e5a23004 	str	r3, [r2, #4]!
80001e8c:	1afffffb 	bne	80001e80 <DMAGetPaRAM+0x10>
80001e90:	e12fff1e 	bx	r14

80001e94 <DMAQdmaGetPaRAM>:
80001e94:	e0802282 	add	r2, r0, r2, lsl #5
80001e98:	e2830020 	add	r0, r3, #32
80001e9c:	e2822dff 	add	r2, r2, #16320	; 0x3fc0
80001ea0:	e282203c 	add	r2, r2, #60	; 0x3c
80001ea4:	e5b21004 	ldr	r1, [r2, #4]!
80001ea8:	e4831004 	str	r1, [r3], #4
80001eac:	e1530000 	cmp	r3, r0
80001eb0:	1afffffb 	bne	80001ea4 <DMAQdmaGetPaRAM+0x10>
80001eb4:	e12fff1e 	bx	r14

80001eb8 <DMASetPaRAM>:
80001eb8:	e2811c02 	add	r1, r1, #512	; 0x200
80001ebc:	e1a03002 	mov	r3, r2
80001ec0:	e2822020 	add	r2, r2, #32
80001ec4:	e0800281 	add	r0, r0, r1, lsl #5
80001ec8:	e0630000 	rsb	r0, r3, r0
80001ecc:	e593c000 	ldr	r12, [r3]
80001ed0:	e783c000 	str	r12, [r3, r0]
80001ed4:	e2833004 	add	r3, r3, #4
80001ed8:	e1530002 	cmp	r3, r2
80001edc:	1afffffa 	bne	80001ecc <DMASetPaRAM+0x14>
80001ee0:	e12fff1e 	bx	r14

80001ee4 <DMAQdmaSetPaRAM>:
80001ee4:	e2822c02 	add	r2, r2, #512	; 0x200
80001ee8:	e2433004 	sub	r3, r3, #4
80001eec:	e0800282 	add	r0, r0, r2, lsl #5
80001ef0:	e2801020 	add	r1, r0, #32
80001ef4:	e5b32004 	ldr	r2, [r3, #4]!
80001ef8:	e4802004 	str	r2, [r0], #4
80001efc:	e1500001 	cmp	r0, r1
80001f00:	1afffffb 	bne	80001ef4 <DMAQdmaSetPaRAM+0x10>
80001f04:	e12fff1e 	bx	r14

80001f08 <DMAQdmaSetPaRAMEntry>:
80001f08:	e2811c02 	add	r1, r1, #512	; 0x200
80001f0c:	e0822181 	add	r2, r2, r1, lsl #3
80001f10:	e7803102 	str	r3, [r0, r2, lsl #2]
80001f14:	e12fff1e 	bx	r14

80001f18 <DMAQdmaGetPaRAMEntry>:
80001f18:	e2811c02 	add	r1, r1, #512	; 0x200
80001f1c:	e0822181 	add	r2, r2, r1, lsl #3
80001f20:	e7900102 	ldr	r0, [r0, r2, lsl #2]
80001f24:	e12fff1e 	bx	r14

80001f28 <DMARequestChannel>:
80001f28:	e352003f 	cmp	r2, #63	; 0x3f
80001f2c:	9a000001 	bls	80001f38 <DMARequestChannel+0x10>
80001f30:	e3a00000 	mov	r0, #0
80001f34:	e12fff1e 	bx	r14
80001f38:	e92d40f8 	push	{r3, r4, r5, r6, r7, r14}
80001f3c:	e1a05001 	mov	r5, r1
80001f40:	e1a06000 	mov	r6, r0
80001f44:	e1a04002 	mov	r4, r2
80001f48:	e1a07003 	mov	r7, r3
80001f4c:	ebfffe51 	bl	80001898 <DMAEnableChInShadowReg>
80001f50:	e1a00006 	mov	r0, r6
80001f54:	e1a01005 	mov	r1, r5
80001f58:	e1a02004 	mov	r2, r4
80001f5c:	e59d3018 	ldr	r3, [r13, #24]
80001f60:	ebfffe93 	bl	800019b4 <DMAMapChToEvtQ>
80001f64:	e3550000 	cmp	r5, #0
80001f68:	1a00000b 	bne	80001f9c <DMARequestChannel+0x74>
80001f6c:	e357003f 	cmp	r7, #63	; 0x3f
80001f70:	9a00000f 	bls	80001fb4 <DMARequestChannel+0x8c>
80001f74:	e3a00000 	mov	r0, #0
80001f78:	e284cc02 	add	r12, r4, #512	; 0x200
80001f7c:	e207303f 	and	r3, r7, #63	; 0x3f
80001f80:	e796228c 	ldr	r2, [r6, r12, lsl #5]
80001f84:	e3c22a3f 	bic	r2, r2, #258048	; 0x3f000
80001f88:	e786228c 	str	r2, [r6, r12, lsl #5]
80001f8c:	e796728c 	ldr	r7, [r6, r12, lsl #5]
80001f90:	e1873603 	orr	r3, r7, r3, lsl #12
80001f94:	e786328c 	str	r3, [r6, r12, lsl #5]
80001f98:	e8bd80f8 	pop	{r3, r4, r5, r6, r7, r15}
80001f9c:	e3550001 	cmp	r5, #1
80001fa0:	0a000001 	beq	80001fac <DMARequestChannel+0x84>
80001fa4:	e3a00000 	mov	r0, #0
80001fa8:	e8bd80f8 	pop	{r3, r4, r5, r6, r7, r15}
80001fac:	e3570007 	cmp	r7, #7
80001fb0:	8affffef 	bhi	80001f74 <DMARequestChannel+0x4c>
80001fb4:	e1a00006 	mov	r0, r6
80001fb8:	e1a01004 	mov	r1, r4
80001fbc:	ebffff64 	bl	80001d54 <DMAEnableEvtIntr>
80001fc0:	e3a00001 	mov	r0, #1
80001fc4:	eaffffeb 	b	80001f78 <DMARequestChannel+0x50>

80001fc8 <DMAEnableTransfer>:
80001fc8:	e3520001 	cmp	r2, #1
80001fcc:	e1a0c000 	mov	r12, r0
80001fd0:	e92d4038 	push	{r3, r4, r5, r14}
80001fd4:	e1a03001 	mov	r3, r1
80001fd8:	0a00000d 	beq	80002014 <DMAEnableTransfer+0x4c>
80001fdc:	e1a04001 	mov	r4, r1
80001fe0:	e1a05000 	mov	r5, r0
80001fe4:	3a000005 	bcc	80002000 <DMAEnableTransfer+0x38>
80001fe8:	e3520002 	cmp	r2, #2
80001fec:	1a000001 	bne	80001ff8 <DMAEnableTransfer+0x30>
80001ff0:	e351003f 	cmp	r1, #63	; 0x3f
80001ff4:	9a000012 	bls	80002044 <DMAEnableTransfer+0x7c>
80001ff8:	e3a00000 	mov	r0, #0
80001ffc:	e8bd8038 	pop	{r3, r4, r5, r15}
80002000:	e351003f 	cmp	r1, #63	; 0x3f
80002004:	8afffffb 	bhi	80001ff8 <DMAEnableTransfer+0x30>
80002008:	ebfffed4 	bl	80001b60 <DMASetEvt>
8000200c:	e3a00001 	mov	r0, #1
80002010:	e8bd8038 	pop	{r3, r4, r5, r15}
80002014:	e3510007 	cmp	r1, #7
80002018:	8afffff6 	bhi	80001ff8 <DMAEnableTransfer+0x30>
8000201c:	e30d1080 	movw	r1, #53376	; 0xd080
80002020:	e1a03312 	lsl	r3, r2, r3
80002024:	e3481001 	movt	r1, #32769	; 0x8001
80002028:	e1a00002 	mov	r0, r2
8000202c:	e5912000 	ldr	r2, [r1]
80002030:	e1a02482 	lsl	r2, r2, #9
80002034:	e2822d82 	add	r2, r2, #8320	; 0x2080
80002038:	e282200c 	add	r2, r2, #12
8000203c:	e782300c 	str	r3, [r2, r12]
80002040:	e8bd8038 	pop	{r3, r4, r5, r15}
80002044:	ebfffe9b 	bl	80001ab8 <DMAClrMissEvt>
80002048:	e1a00005 	mov	r0, r5
8000204c:	e1a01004 	mov	r1, r4
80002050:	ebfffef2 	bl	80001c20 <DMAEnableDmaEvt>
80002054:	e3a00001 	mov	r0, #1
80002058:	e8bd8038 	pop	{r3, r4, r5, r15}

8000205c <DMADisableTransfer>:
8000205c:	e3520001 	cmp	r2, #1
80002060:	e1a0c000 	mov	r12, r0
80002064:	e92d4038 	push	{r3, r4, r5, r14}
80002068:	e1a03001 	mov	r3, r1
8000206c:	0a00000d 	beq	800020a8 <DMADisableTransfer+0x4c>
80002070:	e1a04001 	mov	r4, r1
80002074:	e1a05000 	mov	r5, r0
80002078:	3a000005 	bcc	80002094 <DMADisableTransfer+0x38>
8000207c:	e3520002 	cmp	r2, #2
80002080:	1a000001 	bne	8000208c <DMADisableTransfer+0x30>
80002084:	e351003f 	cmp	r1, #63	; 0x3f
80002088:	9a000012 	bls	800020d8 <DMADisableTransfer+0x7c>
8000208c:	e3a00000 	mov	r0, #0
80002090:	e8bd8038 	pop	{r3, r4, r5, r15}
80002094:	e351003f 	cmp	r1, #63	; 0x3f
80002098:	8afffffb 	bhi	8000208c <DMADisableTransfer+0x30>
8000209c:	ebfffec7 	bl	80001bc0 <DMAClrEvt>
800020a0:	e3a00001 	mov	r0, #1
800020a4:	e8bd8038 	pop	{r3, r4, r5, r15}
800020a8:	e3510007 	cmp	r1, #7
800020ac:	8afffff6 	bhi	8000208c <DMADisableTransfer+0x30>
800020b0:	e30d1080 	movw	r1, #53376	; 0xd080
800020b4:	e1a03312 	lsl	r3, r2, r3
800020b8:	e3481001 	movt	r1, #32769	; 0x8001
800020bc:	e1a00002 	mov	r0, r2
800020c0:	e5912000 	ldr	r2, [r1]
800020c4:	e1a02482 	lsl	r2, r2, #9
800020c8:	e2822d82 	add	r2, r2, #8320	; 0x2080
800020cc:	e2822008 	add	r2, r2, #8
800020d0:	e782300c 	str	r3, [r2, r12]
800020d4:	e8bd8038 	pop	{r3, r4, r5, r15}
800020d8:	ebfffe76 	bl	80001ab8 <DMAClrMissEvt>
800020dc:	e1a00005 	mov	r0, r5
800020e0:	e1a01004 	mov	r1, r4
800020e4:	ebfffee5 	bl	80001c80 <DMADisableDmaEvt>
800020e8:	e3a00001 	mov	r0, #1
800020ec:	e8bd8038 	pop	{r3, r4, r5, r15}

800020f0 <DMAFreeChannel>:
800020f0:	e352003f 	cmp	r2, #63	; 0x3f
800020f4:	9a000001 	bls	80002100 <DMAFreeChannel+0x10>
800020f8:	e3a00000 	mov	r0, #0
800020fc:	e12fff1e 	bx	r14
80002100:	e92d4070 	push	{r4, r5, r6, r14}
80002104:	e1a04002 	mov	r4, r2
80002108:	e1a05001 	mov	r5, r1
8000210c:	e1a02003 	mov	r2, r3
80002110:	e1a06000 	mov	r6, r0
80002114:	e1a01004 	mov	r1, r4
80002118:	ebffffcf 	bl	8000205c <DMADisableTransfer>
8000211c:	e1a00006 	mov	r0, r6
80002120:	e1a01005 	mov	r1, r5
80002124:	e1a02004 	mov	r2, r4
80002128:	ebfffdfb 	bl	8000191c <DMADisableChInShadowReg>
8000212c:	e1a00006 	mov	r0, r6
80002130:	e1a01005 	mov	r1, r5
80002134:	e1a02004 	mov	r2, r4
80002138:	ebfffe34 	bl	80001a10 <DMAUnmapChToEvtQ>
8000213c:	e3550000 	cmp	r5, #0
80002140:	e59d3010 	ldr	r3, [r13, #16]
80002144:	1a000003 	bne	80002158 <DMAFreeChannel+0x68>
80002148:	e353003f 	cmp	r3, #63	; 0x3f
8000214c:	9a000004 	bls	80002164 <DMAFreeChannel+0x74>
80002150:	e3a00000 	mov	r0, #0
80002154:	e8bd8070 	pop	{r4, r5, r6, r15}
80002158:	e3530007 	cmp	r3, #7
8000215c:	93550001 	cmpls	r5, #1
80002160:	1afffffa 	bne	80002150 <DMAFreeChannel+0x60>
80002164:	e1a00006 	mov	r0, r6
80002168:	e1a01004 	mov	r1, r4
8000216c:	ebffff10 	bl	80001db4 <DMADisableEvtIntr>
80002170:	e3a00001 	mov	r0, #1
80002174:	e8bd8070 	pop	{r4, r5, r6, r15}

80002178 <DMAClearErrorBits>:
80002178:	e351003f 	cmp	r1, #63	; 0x3f
8000217c:	e52de004 	push	{r14}		; (str r14, [r13, #-4]!)
80002180:	8a00000f 	bhi	800021c4 <DMAClearErrorBits+0x4c>
80002184:	e351001f 	cmp	r1, #31
80002188:	8a00001b 	bhi	800021fc <DMAClearErrorBits+0x84>
8000218c:	e30dc080 	movw	r12, #53376	; 0xd080
80002190:	e3a03001 	mov	r3, #1
80002194:	e348c001 	movt	r12, #32769	; 0x8001
80002198:	e1a01113 	lsl	r1, r3, r1
8000219c:	e59c3000 	ldr	r3, [r12]
800021a0:	e1a03483 	lsl	r3, r3, #9
800021a4:	e2833a02 	add	r3, r3, #8192	; 0x2000
800021a8:	e2833028 	add	r3, r3, #40	; 0x28
800021ac:	e7831000 	str	r1, [r3, r0]
800021b0:	e5801308 	str	r1, [r0, #776]	; 0x308
800021b4:	e59c3000 	ldr	r3, [r12]
800021b8:	e1a03483 	lsl	r3, r3, #9
800021bc:	e2833d81 	add	r3, r3, #8256	; 0x2040
800021c0:	e7831000 	str	r1, [r3, r0]
800021c4:	e3520000 	cmp	r2, #0
800021c8:	0a00001d 	beq	80002244 <DMAClearErrorBits+0xcc>
800021cc:	e3520001 	cmp	r2, #1
800021d0:	0a000021 	beq	8000225c <DMAClearErrorBits+0xe4>
800021d4:	e3520002 	cmp	r2, #2
800021d8:	0a000001 	beq	800021e4 <DMAClearErrorBits+0x6c>
800021dc:	e3520003 	cmp	r2, #3
800021e0:	149df004 	popne	{r15}		; (ldrne r15, [r13], #4)
800021e4:	e590231c 	ldr	r2, [r0, #796]	; 0x31c
800021e8:	e3a03004 	mov	r3, #4
800021ec:	e3403001 	movt	r3, #1
800021f0:	e0033002 	and	r3, r3, r2
800021f4:	e580331c 	str	r3, [r0, #796]	; 0x31c
800021f8:	e49df004 	pop	{r15}		; (ldr r15, [r13], #4)
800021fc:	e30de080 	movw	r14, #53376	; 0xd080
80002200:	e2411020 	sub	r1, r1, #32
80002204:	e348e001 	movt	r14, #32769	; 0x8001
80002208:	e3a0c001 	mov	r12, #1
8000220c:	e59e3000 	ldr	r3, [r14]
80002210:	e1a0111c 	lsl	r1, r12, r1
80002214:	e3520000 	cmp	r2, #0
80002218:	e1a03483 	lsl	r3, r3, #9
8000221c:	e2833a02 	add	r3, r3, #8192	; 0x2000
80002220:	e283302c 	add	r3, r3, #44	; 0x2c
80002224:	e7831000 	str	r1, [r3, r0]
80002228:	e580130c 	str	r1, [r0, #780]	; 0x30c
8000222c:	e59e3000 	ldr	r3, [r14]
80002230:	e1a03483 	lsl	r3, r3, #9
80002234:	e2833d81 	add	r3, r3, #8256	; 0x2040
80002238:	e2833004 	add	r3, r3, #4
8000223c:	e7831000 	str	r1, [r3, r0]
80002240:	1affffe1 	bne	800021cc <DMAClearErrorBits+0x54>
80002244:	e590231c 	ldr	r2, [r0, #796]	; 0x31c
80002248:	e3a03001 	mov	r3, #1
8000224c:	e7df3813 	bfi	r3, r3, #16, #16
80002250:	e0033002 	and	r3, r3, r2
80002254:	e580331c 	str	r3, [r0, #796]	; 0x31c
80002258:	e49df004 	pop	{r15}		; (ldr r15, [r13], #4)
8000225c:	e590231c 	ldr	r2, [r0, #796]	; 0x31c
80002260:	e3a03002 	mov	r3, #2
80002264:	e3403001 	movt	r3, #1
80002268:	e0033002 	and	r3, r3, r2
8000226c:	e580331c 	str	r3, [r0, #796]	; 0x31c
80002270:	e49df004 	pop	{r15}		; (ldr r15, [r13], #4)

80002274 <DMACCErrorEvaluate>:
80002274:	e3a03001 	mov	r3, #1
80002278:	e5803320 	str	r3, [r0, #800]	; 0x320
8000227c:	e12fff1e 	bx	r14

80002280 <DMADeinit>:
80002280:	e30d2080 	movw	r2, #53376	; 0xd080
80002284:	e3a0c000 	mov	r12, #0
80002288:	e3482001 	movt	r2, #32769	; 0x8001
8000228c:	e1a0300c 	mov	r3, r12
80002290:	e92d4030 	push	{r4, r5, r14}
80002294:	e3a0e007 	mov	r14, #7
80002298:	e5924000 	ldr	r4, [r2]
8000229c:	e3e01000 	mvn	r1, #0
800022a0:	e3a05801 	mov	r5, #65536	; 0x10000
800022a4:	e2844068 	add	r4, r4, #104	; 0x68
800022a8:	e780c184 	str	r12, [r0, r4, lsl #3]
800022ac:	e5922000 	ldr	r2, [r2]
800022b0:	e1a02182 	lsl	r2, r2, #3
800022b4:	e2822fd1 	add	r2, r2, #836	; 0x344
800022b8:	e782c000 	str	r12, [r2, r0]
800022bc:	e580531c 	str	r5, [r0, #796]	; 0x31c
800022c0:	e5801308 	str	r1, [r0, #776]	; 0x308
800022c4:	e580130c 	str	r1, [r0, #780]	; 0x30c
800022c8:	e580131c 	str	r1, [r0, #796]	; 0x31c
800022cc:	e1a021a3 	lsr	r2, r3, #3
800022d0:	e2031007 	and	r1, r3, #7
800022d4:	e2822090 	add	r2, r2, #144	; 0x90
800022d8:	e2833001 	add	r3, r3, #1
800022dc:	e1a0c101 	lsl	r12, r1, #2
800022e0:	e3530040 	cmp	r3, #64	; 0x40
800022e4:	e7901102 	ldr	r1, [r0, r2, lsl #2]
800022e8:	e1c11c1e 	bic	r1, r1, r14, lsl r12
800022ec:	e7801102 	str	r1, [r0, r2, lsl #2]
800022f0:	1afffff5 	bne	800022cc <DMADeinit+0x4c>
800022f4:	e2800e26 	add	r0, r0, #608	; 0x260
800022f8:	e3a03000 	mov	r3, #0
800022fc:	e3a01007 	mov	r1, #7
80002300:	e5902000 	ldr	r2, [r0]
80002304:	e1c22311 	bic	r2, r2, r1, lsl r3
80002308:	e2833004 	add	r3, r3, #4
8000230c:	e3530020 	cmp	r3, #32
80002310:	e5802000 	str	r2, [r0]
80002314:	1afffff9 	bne	80002300 <DMADeinit+0x80>
80002318:	e8bd8030 	pop	{r4, r5, r15}

8000231c <DMAContextSave>:
8000231c:	e92d43f0 	push	{r4, r5, r6, r7, r8, r9, r14}
80002320:	e280ef41 	add	r14, r0, #260	; 0x104
80002324:	e061e00e 	rsb	r14, r1, r14
80002328:	e2413004 	sub	r3, r1, #4
8000232c:	e281c0fc 	add	r12, r1, #252	; 0xfc
80002330:	e79e2003 	ldr	r2, [r14, r3]
80002334:	e5a32004 	str	r2, [r3, #4]!
80002338:	e153000c 	cmp	r3, r12
8000233c:	1afffffb 	bne	80002330 <DMAContextSave+0x14>
80002340:	e2802f51 	add	r2, r0, #324	; 0x144
80002344:	e281ef47 	add	r14, r1, #284	; 0x11c
80002348:	e0612002 	rsb	r2, r1, r2
8000234c:	e792300c 	ldr	r3, [r2, r12]
80002350:	e5ac3004 	str	r3, [r12, #4]!
80002354:	e15c000e 	cmp	r12, r14
80002358:	1afffffb 	bne	8000234c <DMAContextSave+0x30>
8000235c:	e5903340 	ldr	r3, [r0, #832]	; 0x340
80002360:	e3028010 	movw	r8, #8208	; 0x2010
80002364:	e3027014 	movw	r7, #8212	; 0x2014
80002368:	e3026020 	movw	r6, #8224	; 0x2020
8000236c:	e3025024 	movw	r5, #8228	; 0x2024
80002370:	e3022050 	movw	r2, #8272	; 0x2050
80002374:	e5813120 	str	r3, [r1, #288]	; 0x120
80002378:	e3023054 	movw	r3, #8276	; 0x2054
8000237c:	e5909344 	ldr	r9, [r0, #836]	; 0x344
80002380:	e30ce13c 	movw	r14, #49468	; 0xc13c
80002384:	e34fefff 	movt	r14, #65535	; 0xffff
80002388:	e280c901 	add	r12, r0, #16384	; 0x4000
8000238c:	e060e00e 	rsb	r14, r0, r14
80002390:	e2804a06 	add	r4, r0, #24576	; 0x6000
80002394:	e5819124 	str	r9, [r1, #292]	; 0x124
80002398:	e7908008 	ldr	r8, [r0, r8]
8000239c:	e5818128 	str	r8, [r1, #296]	; 0x128
800023a0:	e7907007 	ldr	r7, [r0, r7]
800023a4:	e581712c 	str	r7, [r1, #300]	; 0x12c
800023a8:	e7906006 	ldr	r6, [r0, r6]
800023ac:	e5816130 	str	r6, [r1, #304]	; 0x130
800023b0:	e7905005 	ldr	r5, [r0, r5]
800023b4:	e5815134 	str	r5, [r1, #308]	; 0x134
800023b8:	e7902002 	ldr	r2, [r0, r2]
800023bc:	e5812138 	str	r2, [r1, #312]	; 0x138
800023c0:	e7903003 	ldr	r3, [r0, r3]
800023c4:	e581313c 	str	r3, [r1, #316]	; 0x13c
800023c8:	e08e200c 	add	r2, r14, r12
800023cc:	e1a0300c 	mov	r3, r12
800023d0:	e0812002 	add	r2, r1, r2
800023d4:	e28cc020 	add	r12, r12, #32
800023d8:	e4930004 	ldr	r0, [r3], #4
800023dc:	e153000c 	cmp	r3, r12
800023e0:	e5a20004 	str	r0, [r2, #4]!
800023e4:	1afffffb 	bne	800023d8 <DMAContextSave+0xbc>
800023e8:	e1540003 	cmp	r4, r3
800023ec:	1afffff5 	bne	800023c8 <DMAContextSave+0xac>
800023f0:	e8bd83f0 	pop	{r4, r5, r6, r7, r8, r9, r15}

800023f4 <DMAContextRestore>:
800023f4:	e92d43f0 	push	{r4, r5, r6, r7, r8, r9, r14}
800023f8:	e2804f41 	add	r4, r0, #260	; 0x104
800023fc:	e0614004 	rsb	r4, r1, r4
80002400:	e2413004 	sub	r3, r1, #4
80002404:	e281e0fc 	add	r14, r1, #252	; 0xfc
80002408:	e0842003 	add	r2, r4, r3
8000240c:	e5b3c004 	ldr	r12, [r3, #4]!
80002410:	e153000e 	cmp	r3, r14
80002414:	e582c000 	str	r12, [r2]
80002418:	1afffffa 	bne	80002408 <DMAContextRestore+0x14>
8000241c:	e280cf51 	add	r12, r0, #324	; 0x144
80002420:	e2814f47 	add	r4, r1, #284	; 0x11c
80002424:	e061c00c 	rsb	r12, r1, r12
80002428:	e08c300e 	add	r3, r12, r14
8000242c:	e5be2004 	ldr	r2, [r14, #4]!
80002430:	e15e0004 	cmp	r14, r4
80002434:	e5832000 	str	r2, [r3]
80002438:	1afffffa 	bne	80002428 <DMAContextRestore+0x34>
8000243c:	e5913120 	ldr	r3, [r1, #288]	; 0x120
80002440:	e3028010 	movw	r8, #8208	; 0x2010
80002444:	e3027014 	movw	r7, #8212	; 0x2014
80002448:	e3026030 	movw	r6, #8240	; 0x2030
8000244c:	e3025034 	movw	r5, #8244	; 0x2034
80002450:	e3022060 	movw	r2, #8288	; 0x2060
80002454:	e5803340 	str	r3, [r0, #832]	; 0x340
80002458:	e280edfb 	add	r14, r0, #16064	; 0x3ec0
8000245c:	e5919124 	ldr	r9, [r1, #292]	; 0x124
80002460:	e061e00e 	rsb	r14, r1, r14
80002464:	e281cd05 	add	r12, r1, #320	; 0x140
80002468:	e2814d85 	add	r4, r1, #8512	; 0x2140
8000246c:	e3023064 	movw	r3, #8292	; 0x2064
80002470:	e5809344 	str	r9, [r0, #836]	; 0x344
80002474:	e5919128 	ldr	r9, [r1, #296]	; 0x128
80002478:	e7809008 	str	r9, [r0, r8]
8000247c:	e591812c 	ldr	r8, [r1, #300]	; 0x12c
80002480:	e7808007 	str	r8, [r0, r7]
80002484:	e5917130 	ldr	r7, [r1, #304]	; 0x130
80002488:	e7807006 	str	r7, [r0, r6]
8000248c:	e5916134 	ldr	r6, [r1, #308]	; 0x134
80002490:	e7806005 	str	r6, [r0, r5]
80002494:	e5915138 	ldr	r5, [r1, #312]	; 0x138
80002498:	e7805002 	str	r5, [r0, r2]
8000249c:	e591213c 	ldr	r2, [r1, #316]	; 0x13c
800024a0:	e7802003 	str	r2, [r0, r3]
800024a4:	e1a0300c 	mov	r3, r12
800024a8:	e28cc020 	add	r12, r12, #32
800024ac:	e5932000 	ldr	r2, [r3]
800024b0:	e783200e 	str	r2, [r3, r14]
800024b4:	e2833004 	add	r3, r3, #4
800024b8:	e153000c 	cmp	r3, r12
800024bc:	1afffffa 	bne	800024ac <DMAContextRestore+0xb8>
800024c0:	e1540003 	cmp	r4, r3
800024c4:	1afffff6 	bne	800024a4 <DMAContextRestore+0xb0>
800024c8:	e8bd83f0 	pop	{r4, r5, r6, r7, r8, r9, r15}

800024cc <DMAVersionGet>:
800024cc:	e3a00002 	mov	r0, #2
800024d0:	e12fff1e 	bx	r14

800024d4 <dma_clk_cfg>:
800024d4:	e3a03000 	mov	r3, #0
800024d8:	e34434e0 	movt	r3, #17632	; 0x44e0
800024dc:	e59320bc 	ldr	r2, [r3, #188]	; 0xbc
800024e0:	e1a01003 	mov	r1, r3
800024e4:	e3822002 	orr	r2, r2, #2
800024e8:	e58320bc 	str	r2, [r3, #188]	; 0xbc
800024ec:	e59130bc 	ldr	r3, [r1, #188]	; 0xbc
800024f0:	e3a02000 	mov	r2, #0
800024f4:	e34424e0 	movt	r2, #17632	; 0x44e0
800024f8:	e2033003 	and	r3, r3, #3
800024fc:	e3530002 	cmp	r3, #2
80002500:	1afffff9 	bne	800024ec <dma_clk_cfg+0x18>
80002504:	e5923024 	ldr	r3, [r2, #36]	; 0x24
80002508:	e1a01002 	mov	r1, r2
8000250c:	e3833002 	orr	r3, r3, #2
80002510:	e5823024 	str	r3, [r2, #36]	; 0x24
80002514:	e5913024 	ldr	r3, [r1, #36]	; 0x24
80002518:	e3a02000 	mov	r2, #0
8000251c:	e34424e0 	movt	r2, #17632	; 0x44e0
80002520:	e2033003 	and	r3, r3, #3
80002524:	e3530002 	cmp	r3, #2
80002528:	1afffff9 	bne	80002514 <dma_clk_cfg+0x40>
8000252c:	e59230fc 	ldr	r3, [r2, #252]	; 0xfc
80002530:	e1a01002 	mov	r1, r2
80002534:	e3833002 	orr	r3, r3, #2
80002538:	e58230fc 	str	r3, [r2, #252]	; 0xfc
8000253c:	e59130fc 	ldr	r3, [r1, #252]	; 0xfc
80002540:	e3a02000 	mov	r2, #0
80002544:	e34424e0 	movt	r2, #17632	; 0x44e0
80002548:	e2033003 	and	r3, r3, #3
8000254c:	e3530002 	cmp	r3, #2
80002550:	1afffff9 	bne	8000253c <dma_clk_cfg+0x68>
80002554:	e5923100 	ldr	r3, [r2, #256]	; 0x100
80002558:	e1a01002 	mov	r1, r2
8000255c:	e3833002 	orr	r3, r3, #2
80002560:	e5823100 	str	r3, [r2, #256]	; 0x100
80002564:	e5913100 	ldr	r3, [r1, #256]	; 0x100
80002568:	e2033003 	and	r3, r3, #3
8000256c:	e3530002 	cmp	r3, #2
80002570:	1afffffb 	bne	80002564 <dma_clk_cfg+0x90>
80002574:	e3a0c000 	mov	r12, #0
80002578:	e3a03028 	mov	r3, #40	; 0x28
8000257c:	e1a0000c 	mov	r0, r12
80002580:	e1a0100c 	mov	r1, r12
80002584:	e1a0200c 	mov	r2, r12
80002588:	e3440990 	movt	r0, #18832	; 0x4990
8000258c:	e344c980 	movt	r12, #18816	; 0x4980
80002590:	e34419a0 	movt	r1, #18848	; 0x49a0
80002594:	e34424e0 	movt	r2, #17632	; 0x44e0
80002598:	e58c3010 	str	r3, [r12, #16]
8000259c:	e5803010 	str	r3, [r0, #16]
800025a0:	e5813010 	str	r3, [r1, #16]
800025a4:	e59230bc 	ldr	r3, [r2, #188]	; 0xbc
800025a8:	e3130803 	tst	r3, #196608	; 0x30000
800025ac:	1afffffc 	bne	800025a4 <dma_clk_cfg+0xd0>
800025b0:	e3a02000 	mov	r2, #0
800025b4:	e34424e0 	movt	r2, #17632	; 0x44e0
800025b8:	e5923024 	ldr	r3, [r2, #36]	; 0x24
800025bc:	e3130803 	tst	r3, #196608	; 0x30000
800025c0:	1afffffc 	bne	800025b8 <dma_clk_cfg+0xe4>
800025c4:	e3a02000 	mov	r2, #0
800025c8:	e34424e0 	movt	r2, #17632	; 0x44e0
800025cc:	e5923024 	ldr	r3, [r2, #36]	; 0x24
800025d0:	e3130701 	tst	r3, #262144	; 0x40000
800025d4:	1afffffc 	bne	800025cc <dma_clk_cfg+0xf8>
800025d8:	e3a02000 	mov	r2, #0
800025dc:	e34424e0 	movt	r2, #17632	; 0x44e0
800025e0:	e59230fc 	ldr	r3, [r2, #252]	; 0xfc
800025e4:	e3130803 	tst	r3, #196608	; 0x30000
800025e8:	1afffffc 	bne	800025e0 <dma_clk_cfg+0x10c>
800025ec:	e3a02000 	mov	r2, #0
800025f0:	e34424e0 	movt	r2, #17632	; 0x44e0
800025f4:	e59230fc 	ldr	r3, [r2, #252]	; 0xfc
800025f8:	e3130701 	tst	r3, #262144	; 0x40000
800025fc:	1afffffc 	bne	800025f4 <dma_clk_cfg+0x120>
80002600:	e3a02000 	mov	r2, #0
80002604:	e34424e0 	movt	r2, #17632	; 0x44e0
80002608:	e5923100 	ldr	r3, [r2, #256]	; 0x100
8000260c:	e3130803 	tst	r3, #196608	; 0x30000
80002610:	1afffffc 	bne	80002608 <dma_clk_cfg+0x134>
80002614:	e3a02000 	mov	r2, #0
80002618:	e34424e0 	movt	r2, #17632	; 0x44e0
8000261c:	e5923100 	ldr	r3, [r2, #256]	; 0x100
80002620:	e3130701 	tst	r3, #262144	; 0x40000
80002624:	1afffffc 	bne	8000261c <dma_clk_cfg+0x148>
80002628:	e12fff1e 	bx	r14

8000262c <MMCSoftReset>:
8000262c:	e24dd008 	sub	r13, r13, #8
80002630:	e30f3fff 	movw	r3, #65535	; 0xffff
80002634:	e2802f45 	add	r2, r0, #276	; 0x114
80002638:	e58d3004 	str	r3, [r13, #4]
8000263c:	e5903110 	ldr	r3, [r0, #272]	; 0x110
80002640:	e3833002 	orr	r3, r3, #2
80002644:	e5803110 	str	r3, [r0, #272]	; 0x110
80002648:	ea000004 	b	80002660 <MMCSoftReset+0x34>
8000264c:	e59d3004 	ldr	r3, [r13, #4]
80002650:	e3530000 	cmp	r3, #0
80002654:	e2433001 	sub	r3, r3, #1
80002658:	e58d3004 	str	r3, [r13, #4]
8000265c:	0a000002 	beq	8000266c <MMCSoftReset+0x40>
80002660:	e5923000 	ldr	r3, [r2]
80002664:	e3130001 	tst	r3, #1
80002668:	0afffff7 	beq	8000264c <MMCSoftReset+0x20>
8000266c:	e59d0004 	ldr	r0, [r13, #4]
80002670:	e16f0f10 	clz	r0, r0
80002674:	e1a002a0 	lsr	r0, r0, #5
80002678:	e2600000 	rsb	r0, r0, #0
8000267c:	e28dd008 	add	r13, r13, #8
80002680:	e12fff1e 	bx	r14

80002684 <MMCLinesReset>:
80002684:	e24dd008 	sub	r13, r13, #8
80002688:	e30f3fff 	movw	r3, #65535	; 0xffff
8000268c:	e2802f8b 	add	r2, r0, #556	; 0x22c
80002690:	e58d3004 	str	r3, [r13, #4]
80002694:	e590322c 	ldr	r3, [r0, #556]	; 0x22c
80002698:	e1833001 	orr	r3, r3, r1
8000269c:	e580322c 	str	r3, [r0, #556]	; 0x22c
800026a0:	ea000004 	b	800026b8 <MMCLinesReset+0x34>
800026a4:	e59d3004 	ldr	r3, [r13, #4]
800026a8:	e3530000 	cmp	r3, #0
800026ac:	e2433001 	sub	r3, r3, #1
800026b0:	e58d3004 	str	r3, [r13, #4]
800026b4:	0a000003 	beq	800026c8 <MMCLinesReset+0x44>
800026b8:	e5923000 	ldr	r3, [r2]
800026bc:	e0033001 	and	r3, r3, r1
800026c0:	e1530001 	cmp	r3, r1
800026c4:	1afffff6 	bne	800026a4 <MMCLinesReset+0x20>
800026c8:	e59d0004 	ldr	r0, [r13, #4]
800026cc:	e16f0f10 	clz	r0, r0
800026d0:	e1a002a0 	lsr	r0, r0, #5
800026d4:	e2600000 	rsb	r0, r0, #0
800026d8:	e28dd008 	add	r13, r13, #8
800026dc:	e12fff1e 	bx	r14

800026e0 <MMCSystemConfig>:
800026e0:	e5903110 	ldr	r3, [r0, #272]	; 0x110
800026e4:	e3c33c33 	bic	r3, r3, #13056	; 0x3300
800026e8:	e3c3301d 	bic	r3, r3, #29
800026ec:	e5803110 	str	r3, [r0, #272]	; 0x110
800026f0:	e5903110 	ldr	r3, [r0, #272]	; 0x110
800026f4:	e1831001 	orr	r1, r3, r1
800026f8:	e5801110 	str	r1, [r0, #272]	; 0x110
800026fc:	e12fff1e 	bx	r14

80002700 <MMCSetBusWidth>:
80002700:	e3510004 	cmp	r1, #4
80002704:	0a000010 	beq	8000274c <MMCSetBusWidth+0x4c>
80002708:	e3510008 	cmp	r1, #8
8000270c:	0a00000a 	beq	8000273c <MMCSetBusWidth+0x3c>
80002710:	e3510001 	cmp	r1, #1
80002714:	112fff1e 	bxne	r14
80002718:	e590312c 	ldr	r3, [r0, #300]	; 0x12c
8000271c:	e3c33020 	bic	r3, r3, #32
80002720:	e580312c 	str	r3, [r0, #300]	; 0x12c
80002724:	e5903228 	ldr	r3, [r0, #552]	; 0x228
80002728:	e3c33002 	bic	r3, r3, #2
8000272c:	e5803228 	str	r3, [r0, #552]	; 0x228
80002730:	e5903228 	ldr	r3, [r0, #552]	; 0x228
80002734:	e5803228 	str	r3, [r0, #552]	; 0x228
80002738:	e12fff1e 	bx	r14
8000273c:	e590312c 	ldr	r3, [r0, #300]	; 0x12c
80002740:	e3833020 	orr	r3, r3, #32
80002744:	e580312c 	str	r3, [r0, #300]	; 0x12c
80002748:	e12fff1e 	bx	r14
8000274c:	e590312c 	ldr	r3, [r0, #300]	; 0x12c
80002750:	e3c33020 	bic	r3, r3, #32
80002754:	e580312c 	str	r3, [r0, #300]	; 0x12c
80002758:	e5903228 	ldr	r3, [r0, #552]	; 0x228
8000275c:	e3833002 	orr	r3, r3, #2
80002760:	e5803228 	str	r3, [r0, #552]	; 0x228
80002764:	e12fff1e 	bx	r14

80002768 <MMCBusVoltSet>:
80002768:	e5903228 	ldr	r3, [r0, #552]	; 0x228
8000276c:	e3c33c0e 	bic	r3, r3, #3584	; 0xe00
80002770:	e5803228 	str	r3, [r0, #552]	; 0x228
80002774:	e5903228 	ldr	r3, [r0, #552]	; 0x228
80002778:	e1831001 	orr	r1, r3, r1
8000277c:	e5801228 	str	r1, [r0, #552]	; 0x228
80002780:	e12fff1e 	bx	r14

80002784 <MMCBusPower>:
80002784:	e24dd008 	sub	r13, r13, #8
80002788:	e30f3fff 	movw	r3, #65535	; 0xffff
8000278c:	e340300f 	movt	r3, #15
80002790:	e3510c01 	cmp	r1, #256	; 0x100
80002794:	e58d3004 	str	r3, [r13, #4]
80002798:	e2802f8a 	add	r2, r0, #552	; 0x228
8000279c:	e5903228 	ldr	r3, [r0, #552]	; 0x228
800027a0:	e3c33c01 	bic	r3, r3, #256	; 0x100
800027a4:	e1831001 	orr	r1, r3, r1
800027a8:	e5801228 	str	r1, [r0, #552]	; 0x228
800027ac:	0a00000a 	beq	800027dc <MMCBusPower+0x58>
800027b0:	e59d0004 	ldr	r0, [r13, #4]
800027b4:	e16f0f10 	clz	r0, r0
800027b8:	e1a002a0 	lsr	r0, r0, #5
800027bc:	e2600000 	rsb	r0, r0, #0
800027c0:	e28dd008 	add	r13, r13, #8
800027c4:	e12fff1e 	bx	r14
800027c8:	e59d3004 	ldr	r3, [r13, #4]
800027cc:	e3530000 	cmp	r3, #0
800027d0:	e2433001 	sub	r3, r3, #1
800027d4:	e58d3004 	str	r3, [r13, #4]
800027d8:	0afffff4 	beq	800027b0 <MMCBusPower+0x2c>
800027dc:	e5923000 	ldr	r3, [r2]
800027e0:	e3130c01 	tst	r3, #256	; 0x100
800027e4:	0afffff7 	beq	800027c8 <MMCBusPower+0x44>
800027e8:	eafffff0 	b	800027b0 <MMCBusPower+0x2c>

800027ec <MMCIntClock>:
800027ec:	e590322c 	ldr	r3, [r0, #556]	; 0x22c
800027f0:	e3510001 	cmp	r1, #1
800027f4:	e280cf8b 	add	r12, r0, #556	; 0x22c
800027f8:	e3c33001 	bic	r3, r3, #1
800027fc:	e1831001 	orr	r1, r3, r1
80002800:	e580122c 	str	r1, [r0, #556]	; 0x22c
80002804:	0a000001 	beq	80002810 <MMCIntClock+0x24>
80002808:	e3a00000 	mov	r0, #0
8000280c:	e12fff1e 	bx	r14
80002810:	e24dd008 	sub	r13, r13, #8
80002814:	e3a03000 	mov	r3, #0
80002818:	e58d3004 	str	r3, [r13, #4]
8000281c:	e590322c 	ldr	r3, [r0, #556]	; 0x22c
80002820:	e7e030d3 	ubfx	r3, r3, #1, #1
80002824:	e58d3004 	str	r3, [r13, #4]
80002828:	e59d3004 	ldr	r3, [r13, #4]
8000282c:	e3530001 	cmp	r3, #1
80002830:	130f2fff 	movwne	r2, #65535	; 0xffff
80002834:	0a00000a 	beq	80002864 <MMCIntClock+0x78>
80002838:	e59c3000 	ldr	r3, [r12]
8000283c:	e2522001 	subs	r2, r2, #1
80002840:	e7e030d3 	ubfx	r3, r3, #1, #1
80002844:	e58d3004 	str	r3, [r13, #4]
80002848:	e59d1004 	ldr	r1, [r13, #4]
8000284c:	03a03001 	moveq	r3, #1
80002850:	13a03000 	movne	r3, #0
80002854:	e3510001 	cmp	r1, #1
80002858:	03833001 	orreq	r3, r3, #1
8000285c:	e3530000 	cmp	r3, #0
80002860:	0afffff4 	beq	80002838 <MMCIntClock+0x4c>
80002864:	e59d0004 	ldr	r0, [r13, #4]
80002868:	e16f0f10 	clz	r0, r0
8000286c:	e1a002a0 	lsr	r0, r0, #5
80002870:	e2600000 	rsb	r0, r0, #0
80002874:	e28dd008 	add	r13, r13, #8
80002878:	e12fff1e 	bx	r14

8000287c <MMCIsIntClockStable>:
8000287c:	e24dd008 	sub	r13, r13, #8
80002880:	e3a03000 	mov	r3, #0
80002884:	e280cf8b 	add	r12, r0, #556	; 0x22c
80002888:	e58d3004 	str	r3, [r13, #4]
8000288c:	e590322c 	ldr	r3, [r0, #556]	; 0x22c
80002890:	e7e030d3 	ubfx	r3, r3, #1, #1
80002894:	e58d3004 	str	r3, [r13, #4]
80002898:	e59d3004 	ldr	r3, [r13, #4]
8000289c:	e3530001 	cmp	r3, #1
800028a0:	13510000 	cmpne	r1, #0
800028a4:	0a00000a 	beq	800028d4 <MMCIsIntClockStable+0x58>
800028a8:	e59c3000 	ldr	r3, [r12]
800028ac:	e2511001 	subs	r1, r1, #1
800028b0:	e7e030d3 	ubfx	r3, r3, #1, #1
800028b4:	e58d3004 	str	r3, [r13, #4]
800028b8:	e59d2004 	ldr	r2, [r13, #4]
800028bc:	03a03001 	moveq	r3, #1
800028c0:	13a03000 	movne	r3, #0
800028c4:	e3520001 	cmp	r2, #1
800028c8:	03833001 	orreq	r3, r3, #1
800028cc:	e3530000 	cmp	r3, #0
800028d0:	0afffff4 	beq	800028a8 <MMCIsIntClockStable+0x2c>
800028d4:	e59d0004 	ldr	r0, [r13, #4]
800028d8:	e28dd008 	add	r13, r13, #8
800028dc:	e12fff1e 	bx	r14

800028e0 <MMCSupportedVoltSet>:
800028e0:	e5903240 	ldr	r3, [r0, #576]	; 0x240
800028e4:	e3c33407 	bic	r3, r3, #117440512	; 0x7000000
800028e8:	e5803240 	str	r3, [r0, #576]	; 0x240
800028ec:	e5903240 	ldr	r3, [r0, #576]	; 0x240
800028f0:	e1831001 	orr	r1, r3, r1
800028f4:	e5801240 	str	r1, [r0, #576]	; 0x240
800028f8:	e12fff1e 	bx	r14

800028fc <MMCIsHSupported>:
800028fc:	e5900240 	ldr	r0, [r0, #576]	; 0x240
80002900:	e7e00ad0 	ubfx	r0, r0, #21, #1
80002904:	e12fff1e 	bx	r14

80002908 <MMCDataTimeoutSet>:
80002908:	e590322c 	ldr	r3, [r0, #556]	; 0x22c
8000290c:	e3c3380f 	bic	r3, r3, #983040	; 0xf0000
80002910:	e580322c 	str	r3, [r0, #556]	; 0x22c
80002914:	e590322c 	ldr	r3, [r0, #556]	; 0x22c
80002918:	e1831001 	orr	r1, r3, r1
8000291c:	e580122c 	str	r1, [r0, #556]	; 0x22c
80002920:	e12fff1e 	bx	r14

80002924 <MMCSetBusFreq>:
80002924:	e92d41f0 	push	{r4, r5, r6, r7, r8, r14}
80002928:	e24dd010 	sub	r13, r13, #16
8000292c:	e1a05001 	mov	r5, r1
80002930:	e3a01001 	mov	r1, #1
80002934:	e3a07000 	mov	r7, #0
80002938:	e1a06002 	mov	r6, r2
8000293c:	e58d7004 	str	r7, [r13, #4]
80002940:	e1a08003 	mov	r8, r3
80002944:	e1a04000 	mov	r4, r0
80002948:	e58d7008 	str	r7, [r13, #8]
8000294c:	ebffffa6 	bl	800027ec <MMCIntClock>
80002950:	e3700001 	cmn	r0, #1
80002954:	0a00004b 	beq	80002a88 <MMCSetBusFreq+0x164>
80002958:	e3580000 	cmp	r8, #0
8000295c:	11a00007 	movne	r0, r7
80002960:	1a000046 	bne	80002a80 <MMCSetBusFreq+0x15c>
80002964:	e1a01006 	mov	r1, r6
80002968:	e1a00005 	mov	r0, r5
8000296c:	ebfffabe 	bl	8000146c <__aeabi_uidiv>
80002970:	e58d0004 	str	r0, [r13, #4]
80002974:	e1a00005 	mov	r0, r5
80002978:	e59d3004 	ldr	r3, [r13, #4]
8000297c:	e3530001 	cmp	r3, #1
80002980:	859d3004 	ldrhi	r3, [r13, #4]
80002984:	93a03002 	movls	r3, #2
80002988:	e58d3004 	str	r3, [r13, #4]
8000298c:	e59d3004 	ldr	r3, [r13, #4]
80002990:	e3530b01 	cmp	r3, #1024	; 0x400
80002994:	359d3004 	ldrcc	r3, [r13, #4]
80002998:	230033ff 	movwcs	r3, #1023	; 0x3ff
8000299c:	e58d3004 	str	r3, [r13, #4]
800029a0:	e59d1004 	ldr	r1, [r13, #4]
800029a4:	ebfffab0 	bl	8000146c <__aeabi_uidiv>
800029a8:	e1560000 	cmp	r6, r0
800029ac:	2a00000f 	bcs	800029f0 <MMCSetBusFreq+0xcc>
800029b0:	e59d3004 	ldr	r3, [r13, #4]
800029b4:	e30073ff 	movw	r7, #1023	; 0x3ff
800029b8:	e1530007 	cmp	r3, r7
800029bc:	1a000003 	bne	800029d0 <MMCSetBusFreq+0xac>
800029c0:	ea000030 	b	80002a88 <MMCSetBusFreq+0x164>
800029c4:	e59d3004 	ldr	r3, [r13, #4]
800029c8:	e1530007 	cmp	r3, r7
800029cc:	0a00002d 	beq	80002a88 <MMCSetBusFreq+0x164>
800029d0:	e59d3004 	ldr	r3, [r13, #4]
800029d4:	e1a00005 	mov	r0, r5
800029d8:	e2833001 	add	r3, r3, #1
800029dc:	e58d3004 	str	r3, [r13, #4]
800029e0:	e59d1004 	ldr	r1, [r13, #4]
800029e4:	ebfffaa0 	bl	8000146c <__aeabi_uidiv>
800029e8:	e1560000 	cmp	r6, r0
800029ec:	3afffff4 	bcc	800029c4 <MMCSetBusFreq+0xa0>
800029f0:	e594322c 	ldr	r3, [r4, #556]	; 0x22c
800029f4:	e3a02000 	mov	r2, #0
800029f8:	e2840f8b 	add	r0, r4, #556	; 0x22c
800029fc:	e3c33cff 	bic	r3, r3, #65280	; 0xff00
80002a00:	e3c330c0 	bic	r3, r3, #192	; 0xc0
80002a04:	e58d3008 	str	r3, [r13, #8]
80002a08:	e59d1004 	ldr	r1, [r13, #4]
80002a0c:	e59d3008 	ldr	r3, [r13, #8]
80002a10:	e1833301 	orr	r3, r3, r1, lsl #6
80002a14:	e584322c 	str	r3, [r4, #556]	; 0x22c
80002a18:	e58d200c 	str	r2, [r13, #12]
80002a1c:	e594322c 	ldr	r3, [r4, #556]	; 0x22c
80002a20:	e7e030d3 	ubfx	r3, r3, #1, #1
80002a24:	e58d300c 	str	r3, [r13, #12]
80002a28:	e59d300c 	ldr	r3, [r13, #12]
80002a2c:	e3530001 	cmp	r3, #1
80002a30:	0a00000b 	beq	80002a64 <MMCSetBusFreq+0x140>
80002a34:	e30f2fff 	movw	r2, #65535	; 0xffff
80002a38:	e5903000 	ldr	r3, [r0]
80002a3c:	e2522001 	subs	r2, r2, #1
80002a40:	e7e030d3 	ubfx	r3, r3, #1, #1
80002a44:	e58d300c 	str	r3, [r13, #12]
80002a48:	e59d100c 	ldr	r1, [r13, #12]
80002a4c:	03a03001 	moveq	r3, #1
80002a50:	13a03000 	movne	r3, #0
80002a54:	e3510001 	cmp	r1, #1
80002a58:	03833001 	orreq	r3, r3, #1
80002a5c:	e3530000 	cmp	r3, #0
80002a60:	0afffff4 	beq	80002a38 <MMCSetBusFreq+0x114>
80002a64:	e59d300c 	ldr	r3, [r13, #12]
80002a68:	e3530000 	cmp	r3, #0
80002a6c:	0a000005 	beq	80002a88 <MMCSetBusFreq+0x164>
80002a70:	e594322c 	ldr	r3, [r4, #556]	; 0x22c
80002a74:	e3a00000 	mov	r0, #0
80002a78:	e3833004 	orr	r3, r3, #4
80002a7c:	e584322c 	str	r3, [r4, #556]	; 0x22c
80002a80:	e28dd010 	add	r13, r13, #16
80002a84:	e8bd81f0 	pop	{r4, r5, r6, r7, r8, r15}
80002a88:	e3e00000 	mvn	r0, #0
80002a8c:	e28dd010 	add	r13, r13, #16
80002a90:	e8bd81f0 	pop	{r4, r5, r6, r7, r8, r15}

80002a94 <MMCInitStreamSend>:
80002a94:	e5903234 	ldr	r3, [r0, #564]	; 0x234
80002a98:	e3a02000 	mov	r2, #0
80002a9c:	e92d4010 	push	{r4, r14}
80002aa0:	e3833001 	orr	r3, r3, #1
80002aa4:	e24dd008 	sub	r13, r13, #8
80002aa8:	e5803234 	str	r3, [r0, #564]	; 0x234
80002aac:	e590312c 	ldr	r3, [r0, #300]	; 0x12c
80002ab0:	e1a0e000 	mov	r14, r0
80002ab4:	e280ce23 	add	r12, r0, #560	; 0x230
80002ab8:	e3833002 	orr	r3, r3, #2
80002abc:	e580312c 	str	r3, [r0, #300]	; 0x12c
80002ac0:	e580220c 	str	r2, [r0, #524]	; 0x20c
80002ac4:	e58d2004 	str	r2, [r13, #4]
80002ac8:	e5903230 	ldr	r3, [r0, #560]	; 0x230
80002acc:	e2033001 	and	r3, r3, #1
80002ad0:	e58d3004 	str	r3, [r13, #4]
80002ad4:	e59d3004 	ldr	r3, [r13, #4]
80002ad8:	e3530001 	cmp	r3, #1
80002adc:	0a00000b 	beq	80002b10 <MMCInitStreamSend+0x7c>
80002ae0:	e30f2fff 	movw	r2, #65535	; 0xffff
80002ae4:	e59c3000 	ldr	r3, [r12]
80002ae8:	e2522001 	subs	r2, r2, #1
80002aec:	e2033001 	and	r3, r3, #1
80002af0:	e58d3004 	str	r3, [r13, #4]
80002af4:	e59d1004 	ldr	r1, [r13, #4]
80002af8:	03a03001 	moveq	r3, #1
80002afc:	13a03000 	movne	r3, #0
80002b00:	e3510001 	cmp	r1, #1
80002b04:	03833001 	orreq	r3, r3, #1
80002b08:	e3530000 	cmp	r3, #0
80002b0c:	0afffff4 	beq	80002ae4 <MMCInitStreamSend+0x50>
80002b10:	e59d4004 	ldr	r4, [r13, #4]
80002b14:	e3e00000 	mvn	r0, #0
80002b18:	e59e312c 	ldr	r3, [r14, #300]	; 0x12c
80002b1c:	e3c33002 	bic	r3, r3, #2
80002b20:	e58e312c 	str	r3, [r14, #300]	; 0x12c
80002b24:	ebfff7b5 	bl	80000a00 <mmc0_clear_status>
80002b28:	e1a00004 	mov	r0, r4
80002b2c:	e28dd008 	add	r13, r13, #8
80002b30:	e8bd8010 	pop	{r4, r15}

80002b34 <MMCIntrStatusEnable>:
80002b34:	e5903234 	ldr	r3, [r0, #564]	; 0x234
80002b38:	e1831001 	orr	r1, r3, r1
80002b3c:	e5801234 	str	r1, [r0, #564]	; 0x234
80002b40:	e12fff1e 	bx	r14

80002b44 <MMCIntrStatusDisable>:
80002b44:	e5903234 	ldr	r3, [r0, #564]	; 0x234
80002b48:	e1c31001 	bic	r1, r3, r1
80002b4c:	e5801234 	str	r1, [r0, #564]	; 0x234
80002b50:	e12fff1e 	bx	r14

80002b54 <MMCIntrEnable>:
80002b54:	e5903238 	ldr	r3, [r0, #568]	; 0x238
80002b58:	e1833001 	orr	r3, r3, r1
80002b5c:	e5803238 	str	r3, [r0, #568]	; 0x238
80002b60:	e5903234 	ldr	r3, [r0, #564]	; 0x234
80002b64:	e1831001 	orr	r1, r3, r1
80002b68:	e5801234 	str	r1, [r0, #564]	; 0x234
80002b6c:	e12fff1e 	bx	r14

80002b70 <MMCIntrStatusGet>:
80002b70:	e5900230 	ldr	r0, [r0, #560]	; 0x230
80002b74:	e0000001 	and	r0, r0, r1
80002b78:	e12fff1e 	bx	r14

80002b7c <MMCIsCmdComplete>:
80002b7c:	e24dd008 	sub	r13, r13, #8
80002b80:	e3a03000 	mov	r3, #0
80002b84:	e280ce23 	add	r12, r0, #560	; 0x230
80002b88:	e58d3004 	str	r3, [r13, #4]
80002b8c:	e5903230 	ldr	r3, [r0, #560]	; 0x230
80002b90:	e2033001 	and	r3, r3, #1
80002b94:	e58d3004 	str	r3, [r13, #4]
80002b98:	e59d3004 	ldr	r3, [r13, #4]
80002b9c:	e3530001 	cmp	r3, #1
80002ba0:	13510000 	cmpne	r1, #0
80002ba4:	0a00000a 	beq	80002bd4 <MMCIsCmdComplete+0x58>
80002ba8:	e59c3000 	ldr	r3, [r12]
80002bac:	e2511001 	subs	r1, r1, #1
80002bb0:	e2033001 	and	r3, r3, #1
80002bb4:	e58d3004 	str	r3, [r13, #4]
80002bb8:	e59d2004 	ldr	r2, [r13, #4]
80002bbc:	03a03001 	moveq	r3, #1
80002bc0:	13a03000 	movne	r3, #0
80002bc4:	e3520001 	cmp	r2, #1
80002bc8:	03833001 	orreq	r3, r3, #1
80002bcc:	e3530000 	cmp	r3, #0
80002bd0:	0afffff4 	beq	80002ba8 <MMCIsCmdComplete+0x2c>
80002bd4:	e59d0004 	ldr	r0, [r13, #4]
80002bd8:	e28dd008 	add	r13, r13, #8
80002bdc:	e12fff1e 	bx	r14

80002be0 <MMCIsXferComplete>:
80002be0:	e24dd008 	sub	r13, r13, #8
80002be4:	e3a03000 	mov	r3, #0
80002be8:	e280ce23 	add	r12, r0, #560	; 0x230
80002bec:	e58d3004 	str	r3, [r13, #4]
80002bf0:	e5903230 	ldr	r3, [r0, #560]	; 0x230
80002bf4:	e7e030d3 	ubfx	r3, r3, #1, #1
80002bf8:	e58d3004 	str	r3, [r13, #4]
80002bfc:	e59d3004 	ldr	r3, [r13, #4]
80002c00:	e3530001 	cmp	r3, #1
80002c04:	13510000 	cmpne	r1, #0
80002c08:	0a00000a 	beq	80002c38 <MMCIsXferComplete+0x58>
80002c0c:	e59c3000 	ldr	r3, [r12]
80002c10:	e2511001 	subs	r1, r1, #1
80002c14:	e7e030d3 	ubfx	r3, r3, #1, #1
80002c18:	e58d3004 	str	r3, [r13, #4]
80002c1c:	e59d2004 	ldr	r2, [r13, #4]
80002c20:	03a03001 	moveq	r3, #1
80002c24:	13a03000 	movne	r3, #0
80002c28:	e3520001 	cmp	r2, #1
80002c2c:	03833001 	orreq	r3, r3, #1
80002c30:	e3530000 	cmp	r3, #0
80002c34:	0afffff4 	beq	80002c0c <MMCIsXferComplete+0x2c>
80002c38:	e59d0004 	ldr	r0, [r13, #4]
80002c3c:	e28dd008 	add	r13, r13, #8
80002c40:	e12fff1e 	bx	r14

80002c44 <MMCBlkLenSet>:
80002c44:	e5903204 	ldr	r3, [r0, #516]	; 0x204
80002c48:	e3c33eff 	bic	r3, r3, #4080	; 0xff0
80002c4c:	e3c3300f 	bic	r3, r3, #15
80002c50:	e5803204 	str	r3, [r0, #516]	; 0x204
80002c54:	e5903204 	ldr	r3, [r0, #516]	; 0x204
80002c58:	e1831001 	orr	r1, r3, r1
80002c5c:	e5801204 	str	r1, [r0, #516]	; 0x204
80002c60:	e12fff1e 	bx	r14

80002c64 <MMCDataGet>:
80002c64:	e1b02122 	lsrs	r2, r2, #2
80002c68:	012fff1e 	bxeq	r14
80002c6c:	e2800e22 	add	r0, r0, #544	; 0x220
80002c70:	e0812102 	add	r2, r1, r2, lsl #2
80002c74:	e5903000 	ldr	r3, [r0]
80002c78:	e4813004 	str	r3, [r1], #4
80002c7c:	e1510002 	cmp	r1, r2
80002c80:	1afffffb 	bne	80002c74 <MMCDataGet+0x10>
80002c84:	e12fff1e 	bx	r14

80002c88 <MMCCardInserted>:
80002c88:	e3a03000 	mov	r3, #0
80002c8c:	e3443806 	movt	r3, #18438	; 0x4806
80002c90:	e5930224 	ldr	r0, [r3, #548]	; 0x224
80002c94:	e7e00850 	ubfx	r0, r0, #16, #1
80002c98:	e12fff1e 	bx	r14

80002c9c <MMCIsCardWriteProtected>:
80002c9c:	e5900224 	ldr	r0, [r0, #548]	; 0x224
80002ca0:	e7e009d0 	ubfx	r0, r0, #19, #1
80002ca4:	e12fff1e 	bx	r14

80002ca8 <MMCContextSave>:
80002ca8:	e5903240 	ldr	r3, [r0, #576]	; 0x240
80002cac:	e5813000 	str	r3, [r1]
80002cb0:	e5903110 	ldr	r3, [r0, #272]	; 0x110
80002cb4:	e5813004 	str	r3, [r1, #4]
80002cb8:	e590312c 	ldr	r3, [r0, #300]	; 0x12c
80002cbc:	e5813008 	str	r3, [r1, #8]
80002cc0:	e590322c 	ldr	r3, [r0, #556]	; 0x22c
80002cc4:	e5813010 	str	r3, [r1, #16]
80002cc8:	e5903224 	ldr	r3, [r0, #548]	; 0x224
80002ccc:	e5813014 	str	r3, [r1, #20]
80002cd0:	e5903228 	ldr	r3, [r0, #552]	; 0x228
80002cd4:	e581300c 	str	r3, [r1, #12]
80002cd8:	e12fff1e 	bx	r14

80002cdc <MMCContextRestore>:
80002cdc:	e5913004 	ldr	r3, [r1, #4]
80002ce0:	e5803110 	str	r3, [r0, #272]	; 0x110
80002ce4:	e5913010 	ldr	r3, [r1, #16]
80002ce8:	e580322c 	str	r3, [r0, #556]	; 0x22c
80002cec:	e5913000 	ldr	r3, [r1]
80002cf0:	e5803240 	str	r3, [r0, #576]	; 0x240
80002cf4:	e5913008 	ldr	r3, [r1, #8]
80002cf8:	e580312c 	str	r3, [r0, #300]	; 0x12c
80002cfc:	e591300c 	ldr	r3, [r1, #12]
80002d00:	e5803228 	str	r3, [r0, #552]	; 0x228
80002d04:	e5913014 	ldr	r3, [r1, #20]
80002d08:	e5803224 	str	r3, [r0, #548]	; 0x224
80002d0c:	e12fff1e 	bx	r14

80002d10 <MMCModuleClkCfg>:
80002d10:	e3a03000 	mov	r3, #0
80002d14:	e34434e0 	movt	r3, #17632	; 0x44e0
80002d18:	e593103c 	ldr	r1, [r3, #60]	; 0x3c
80002d1c:	e1a02003 	mov	r2, r3
80002d20:	e3811002 	orr	r1, r1, #2
80002d24:	e583103c 	str	r1, [r3, #60]	; 0x3c
80002d28:	e592303c 	ldr	r3, [r2, #60]	; 0x3c
80002d2c:	e2033003 	and	r3, r3, #3
80002d30:	e3530002 	cmp	r3, #2
80002d34:	1afffffb 	bne	80002d28 <MMCModuleClkCfg+0x18>
80002d38:	e12fff1e 	bx	r14

80002d3c <MMC0CmdSend>:
80002d3c:	e92d40f8 	push	{r3, r4, r5, r6, r7, r14}
80002d40:	e1a05001 	mov	r5, r1
80002d44:	e5913004 	ldr	r3, [r1, #4]
80002d48:	e1a06000 	mov	r6, r0
80002d4c:	e3130002 	tst	r3, #2
80002d50:	13a01001 	movne	r1, #1
80002d54:	1a000002 	bne	80002d64 <MMC0CmdSend+0x28>
80002d58:	e3130004 	tst	r3, #4
80002d5c:	13a01502 	movne	r1, #8388608	; 0x800000
80002d60:	0a000036 	beq	80002e40 <MMC0CmdSend+0x104>
80002d64:	e3130080 	tst	r3, #128	; 0x80
80002d68:	13a0c010 	movne	r12, #16
80002d6c:	03a0c000 	moveq	r12, #0
80002d70:	e2132040 	ands	r2, r3, #64	; 0x40
80002d74:	0a000018 	beq	80002ddc <MMC0CmdSend+0xa0>
80002d78:	e3130001 	tst	r3, #1
80002d7c:	e5957010 	ldr	r7, [r5, #16]
80002d80:	0a000025 	beq	80002e1c <MMC0CmdSend+0xe0>
80002d84:	e5954000 	ldr	r4, [r5]
80002d88:	e1811c04 	orr	r1, r1, r4, lsl #24
80002d8c:	e181400c 	orr	r4, r1, r12
80002d90:	e3a00002 	mov	r0, #2
80002d94:	ebfff719 	bl	80000a00 <mmc0_clear_status>
80002d98:	e3a0001b 	mov	r0, #27
80002d9c:	ebfff70e 	bl	800009dc <mmc0_set_dto>
80002da0:	e3840602 	orr	r0, r4, #2097152	; 0x200000
80002da4:	e3800022 	orr	r0, r0, #34	; 0x22
80002da8:	e5963010 	ldr	r3, [r6, #16]
80002dac:	e1a02007 	mov	r2, r7
80002db0:	e5951008 	ldr	r1, [r5, #8]
80002db4:	e3530001 	cmp	r3, #1
80002db8:	03800001 	orreq	r0, r0, #1
80002dbc:	ebfff6fb 	bl	800009b0 <mmc0_send_cmd>
80002dc0:	e1a00006 	mov	r0, r6
80002dc4:	eb000ebf 	bl	800068c8 <mmc0_get_cmd_status>
80002dc8:	e3500001 	cmp	r0, #1
80002dcc:	e1a04000 	mov	r4, r0
80002dd0:	0a00001e 	beq	80002e50 <MMC0CmdSend+0x114>
80002dd4:	e1a00004 	mov	r0, r4
80002dd8:	e8bd80f8 	pop	{r3, r4, r5, r6, r7, r15}
80002ddc:	e2130001 	ands	r0, r3, #1
80002de0:	0a000004 	beq	80002df8 <MMC0CmdSend+0xbc>
80002de4:	e5953000 	ldr	r3, [r5]
80002de8:	e1a07002 	mov	r7, r2
80002dec:	e1811c03 	orr	r1, r1, r3, lsl #24
80002df0:	e181000c 	orr	r0, r1, r12
80002df4:	eaffffeb 	b	80002da8 <MMC0CmdSend+0x6c>
80002df8:	e2137020 	ands	r7, r3, #32
80002dfc:	1a000026 	bne	80002e9c <MMC0CmdSend+0x160>
80002e00:	e2132010 	ands	r2, r3, #16
80002e04:	e5953000 	ldr	r3, [r5]
80002e08:	0a000014 	beq	80002e60 <MMC0CmdSend+0x124>
80002e0c:	e1811c03 	orr	r1, r1, r3, lsl #24
80002e10:	e181c00c 	orr	r12, r1, r12
80002e14:	e38c0803 	orr	r0, r12, #196608	; 0x30000
80002e18:	eaffffe2 	b	80002da8 <MMC0CmdSend+0x6c>
80002e1c:	e3130020 	tst	r3, #32
80002e20:	1a000018 	bne	80002e88 <MMC0CmdSend+0x14c>
80002e24:	e3130010 	tst	r3, #16
80002e28:	0a000011 	beq	80002e74 <MMC0CmdSend+0x138>
80002e2c:	e5953000 	ldr	r3, [r5]
80002e30:	e1811c03 	orr	r1, r1, r3, lsl #24
80002e34:	e181c00c 	orr	r12, r1, r12
80002e38:	e38c4803 	orr	r4, r12, #196608	; 0x30000
80002e3c:	eaffffd3 	b	80002d90 <MMC0CmdSend+0x54>
80002e40:	e3130008 	tst	r3, #8
80002e44:	03a01000 	moveq	r1, #0
80002e48:	13a01503 	movne	r1, #12582912	; 0xc00000
80002e4c:	eaffffc4 	b	80002d64 <MMC0CmdSend+0x28>
80002e50:	e2850014 	add	r0, r5, #20
80002e54:	ebfff6ed 	bl	80000a10 <mmc0_get_resp>
80002e58:	e1a00004 	mov	r0, r4
80002e5c:	e8bd80f8 	pop	{r3, r4, r5, r6, r7, r15}
80002e60:	e1811c03 	orr	r1, r1, r3, lsl #24
80002e64:	e1a07002 	mov	r7, r2
80002e68:	e181c00c 	orr	r12, r1, r12
80002e6c:	e38c0802 	orr	r0, r12, #131072	; 0x20000
80002e70:	eaffffcc 	b	80002da8 <MMC0CmdSend+0x6c>
80002e74:	e5954000 	ldr	r4, [r5]
80002e78:	e1814c04 	orr	r4, r1, r4, lsl #24
80002e7c:	e184c00c 	orr	r12, r4, r12
80002e80:	e38c4802 	orr	r4, r12, #131072	; 0x20000
80002e84:	eaffffc1 	b	80002d90 <MMC0CmdSend+0x54>
80002e88:	e5954000 	ldr	r4, [r5]
80002e8c:	e1814c04 	orr	r4, r1, r4, lsl #24
80002e90:	e3844801 	orr	r4, r4, #65536	; 0x10000
80002e94:	e184400c 	orr	r4, r4, r12
80002e98:	eaffffbc 	b	80002d90 <MMC0CmdSend+0x54>
80002e9c:	e5953000 	ldr	r3, [r5]
80002ea0:	e1a07000 	mov	r7, r0
80002ea4:	e1813c03 	orr	r3, r1, r3, lsl #24
80002ea8:	e3833801 	orr	r3, r3, #65536	; 0x10000
80002eac:	e183000c 	orr	r0, r3, r12
80002eb0:	eaffffbc 	b	80002da8 <MMC0CmdSend+0x6c>

80002eb4 <MMCAppCmdSend>:
80002eb4:	e5903028 	ldr	r3, [r0, #40]	; 0x28
80002eb8:	e3a0c037 	mov	r12, #55	; 0x37
80002ebc:	e92d4030 	push	{r4, r5, r14}
80002ec0:	e24dd02c 	sub	r13, r13, #44	; 0x2c
80002ec4:	e5933008 	ldr	r3, [r3, #8]
80002ec8:	e1a05001 	mov	r5, r1
80002ecc:	e28d1004 	add	r1, r13, #4
80002ed0:	e3a02000 	mov	r2, #0
80002ed4:	e1a04000 	mov	r4, r0
80002ed8:	e58dc004 	str	r12, [r13, #4]
80002edc:	e1a03803 	lsl	r3, r3, #16
80002ee0:	e58d2008 	str	r2, [r13, #8]
80002ee4:	e58d300c 	str	r3, [r13, #12]
80002ee8:	ebffff93 	bl	80002d3c <MMC0CmdSend>
80002eec:	e3500000 	cmp	r0, #0
80002ef0:	0a000002 	beq	80002f00 <MMCAppCmdSend+0x4c>
80002ef4:	e1a00004 	mov	r0, r4
80002ef8:	e1a01005 	mov	r1, r5
80002efc:	ebffff8e 	bl	80002d3c <MMC0CmdSend>
80002f00:	e28dd02c 	add	r13, r13, #44	; 0x2c
80002f04:	e8bd8030 	pop	{r4, r5, r15}

80002f08 <MMCBusWidthSet>:
80002f08:	e92d4030 	push	{r4, r5, r14}
80002f0c:	e1a04000 	mov	r4, r0
80002f10:	e5943014 	ldr	r3, [r4, #20]
80002f14:	e24dd02c 	sub	r13, r13, #44	; 0x2c
80002f18:	e3a00006 	mov	r0, #6
80002f1c:	e3a01001 	mov	r1, #1
80002f20:	e2133004 	ands	r3, r3, #4
80002f24:	e3a02000 	mov	r2, #0
80002f28:	e594c028 	ldr	r12, [r4, #40]	; 0x28
80002f2c:	e58d0004 	str	r0, [r13, #4]
80002f30:	e58d100c 	str	r1, [r13, #12]
80002f34:	e58d2008 	str	r2, [r13, #8]
80002f38:	0a000003 	beq	80002f4c <MMCBusWidthSet+0x44>
80002f3c:	e5dc3039 	ldrb	r3, [r12, #57]	; 0x39
80002f40:	e3130004 	tst	r3, #4
80002f44:	13a03002 	movne	r3, #2
80002f48:	01a03002 	moveq	r3, r2
80002f4c:	e1a00004 	mov	r0, r4
80002f50:	e28d1004 	add	r1, r13, #4
80002f54:	e58d300c 	str	r3, [r13, #12]
80002f58:	ebffffd5 	bl	80002eb4 <MMCAppCmdSend>
80002f5c:	e3500001 	cmp	r0, #1
80002f60:	e1a05000 	mov	r5, r0
80002f64:	1a000005 	bne	80002f80 <MMCBusWidthSet+0x78>
80002f68:	e59d300c 	ldr	r3, [r13, #12]
80002f6c:	e5940000 	ldr	r0, [r4]
80002f70:	e3530000 	cmp	r3, #0
80002f74:	01a01005 	moveq	r1, r5
80002f78:	13a01004 	movne	r1, #4
80002f7c:	ebfffddf 	bl	80002700 <MMCSetBusWidth>
80002f80:	e1a00005 	mov	r0, r5
80002f84:	e28dd02c 	add	r13, r13, #44	; 0x2c
80002f88:	e8bd8030 	pop	{r4, r5, r15}

80002f8c <MMCTranSpeedSet>:
80002f8c:	e92d40f0 	push	{r4, r5, r6, r7, r14}
80002f90:	e30c4000 	movw	r4, #49152	; 0xc000
80002f94:	e24dd034 	sub	r13, r13, #52	; 0x34
80002f98:	e3a05001 	mov	r5, #1
80002f9c:	e3484000 	movt	r4, #32768	; 0x8000
80002fa0:	e1a01005 	mov	r1, r5
80002fa4:	e58d5000 	str	r5, [r13]
80002fa8:	e1a02004 	mov	r2, r4
80002fac:	e1a06000 	mov	r6, r0
80002fb0:	e3a03040 	mov	r3, #64	; 0x40
80002fb4:	e5907028 	ldr	r7, [r0, #40]	; 0x28
80002fb8:	eb000ed8 	bl	80006b20 <MMCXferSetup>
80002fbc:	e30f3ff1 	movw	r3, #65521	; 0xfff1
80002fc0:	e1a00006 	mov	r0, r6
80002fc4:	e28d100c 	add	r1, r13, #12
80002fc8:	e34830ff 	movt	r3, #33023	; 0x80ff
80002fcc:	e3a02006 	mov	r2, #6
80002fd0:	e58d3014 	str	r3, [r13, #20]
80002fd4:	e58d4018 	str	r4, [r13, #24]
80002fd8:	e3a030c0 	mov	r3, #192	; 0xc0
80002fdc:	e58d501c 	str	r5, [r13, #28]
80002fe0:	e58d200c 	str	r2, [r13, #12]
80002fe4:	e58d3010 	str	r3, [r13, #16]
80002fe8:	ebffff53 	bl	80002d3c <MMC0CmdSend>
80002fec:	e3500000 	cmp	r0, #0
80002ff0:	1a000002 	bne	80003000 <MMCTranSpeedSet+0x74>
80002ff4:	e3a00000 	mov	r0, #0
80002ff8:	e28dd034 	add	r13, r13, #52	; 0x34
80002ffc:	e8bd80f0 	pop	{r4, r5, r6, r7, r15}
80003000:	e1a00006 	mov	r0, r6
80003004:	eb000e47 	bl	80006928 <mmc0_get_xfer_status>
80003008:	e3500000 	cmp	r0, #0
8000300c:	0afffff8 	beq	80002ff4 <MMCTranSpeedSet+0x68>
80003010:	e1a00004 	mov	r0, r4
80003014:	e3a01080 	mov	r1, #128	; 0x80
80003018:	ebfff7b3 	bl	80000eec <CP15DCacheFlushBuff>
8000301c:	e5d43010 	ldrb	r3, [r4, #16]
80003020:	e5d7203a 	ldrb	r2, [r7, #58]	; 0x3a
80003024:	e203300f 	and	r3, r3, #15
80003028:	e3530001 	cmp	r3, #1
8000302c:	03a0305a 	moveq	r3, #90	; 0x5a
80003030:	05c7303a 	strbeq	r3, [r7, #58]	; 0x3a
80003034:	e352005a 	cmp	r2, #90	; 0x5a
80003038:	e5961004 	ldr	r1, [r6, #4]
8000303c:	e3a03000 	mov	r3, #0
80003040:	030f4080 	movweq	r4, #61568	; 0xf080
80003044:	13074840 	movwne	r4, #30784	; 0x7840
80003048:	034042fa 	movteq	r4, #762	; 0x2fa
8000304c:	1340417d 	movtne	r4, #381	; 0x17d
80003050:	05960000 	ldreq	r0, [r6]
80003054:	e1a02004 	mov	r2, r4
80003058:	15960000 	ldrne	r0, [r6]
8000305c:	ebfffe30 	bl	80002924 <MMCSetBusFreq>
80003060:	e5864008 	str	r4, [r6, #8]
80003064:	e16f0f10 	clz	r0, r0
80003068:	e1a002a0 	lsr	r0, r0, #5
8000306c:	e28dd034 	add	r13, r13, #52	; 0x34
80003070:	e8bd80f0 	pop	{r4, r5, r6, r7, r15}

80003074 <MMCCardReset>:
80003074:	e52de004 	push	{r14}		; (str r14, [r13, #-4]!)
80003078:	e24dd02c 	sub	r13, r13, #44	; 0x2c
8000307c:	e28d1004 	add	r1, r13, #4
80003080:	e3a03000 	mov	r3, #0
80003084:	e3a02001 	mov	r2, #1
80003088:	e58d3004 	str	r3, [r13, #4]
8000308c:	e58d300c 	str	r3, [r13, #12]
80003090:	e58d2008 	str	r2, [r13, #8]
80003094:	ebffff28 	bl	80002d3c <MMC0CmdSend>
80003098:	e28dd02c 	add	r13, r13, #44	; 0x2c
8000309c:	e49df004 	pop	{r15}		; (ldr r15, [r13], #4)

800030a0 <MMCStopCmdSend>:
800030a0:	e92d4010 	push	{r4, r14}
800030a4:	e24dd028 	sub	r13, r13, #40	; 0x28
800030a8:	e1a04000 	mov	r4, r0
800030ac:	e28d1004 	add	r1, r13, #4
800030b0:	e3a02010 	mov	r2, #16
800030b4:	e3a0300c 	mov	r3, #12
800030b8:	e58d2008 	str	r2, [r13, #8]
800030bc:	e58d3004 	str	r3, [r13, #4]
800030c0:	e3a03000 	mov	r3, #0
800030c4:	e58d300c 	str	r3, [r13, #12]
800030c8:	ebffff1b 	bl	80002d3c <MMC0CmdSend>
800030cc:	e1a00004 	mov	r0, r4
800030d0:	eb000e14 	bl	80006928 <mmc0_get_xfer_status>
800030d4:	e28dd028 	add	r13, r13, #40	; 0x28
800030d8:	e8bd8010 	pop	{r4, r15}

800030dc <MMCCardTypeCheck>:
800030dc:	e52de004 	push	{r14}		; (str r14, [r13, #-4]!)
800030e0:	e24dd02c 	sub	r13, r13, #44	; 0x2c
800030e4:	e28d1004 	add	r1, r13, #4
800030e8:	e3a03000 	mov	r3, #0
800030ec:	e3a02037 	mov	r2, #55	; 0x37
800030f0:	e58d300c 	str	r3, [r13, #12]
800030f4:	e98d000c 	stmib	r13, {r2, r3}
800030f8:	ebffff6d 	bl	80002eb4 <MMCAppCmdSend>
800030fc:	e28dd02c 	add	r13, r13, #44	; 0x2c
80003100:	e49df004 	pop	{r15}		; (ldr r15, [r13], #4)

80003104 <MMCCardInit>:
80003104:	e92d43f0 	push	{r4, r5, r6, r7, r8, r9, r14}
80003108:	e3a01000 	mov	r1, #0
8000310c:	e5906028 	ldr	r6, [r0, #40]	; 0x28
80003110:	e24dd034 	sub	r13, r13, #52	; 0x34
80003114:	e1a04000 	mov	r4, r0
80003118:	e3a02048 	mov	r2, #72	; 0x48
8000311c:	e1a05001 	mov	r5, r1
80003120:	e1a00006 	mov	r0, r6
80003124:	ebfff822 	bl	800011b4 <memset>
80003128:	e5864000 	str	r4, [r6]
8000312c:	e1a00004 	mov	r0, r4
80003130:	e28d100c 	add	r1, r13, #12
80003134:	e3a03001 	mov	r3, #1
80003138:	e58d500c 	str	r5, [r13, #12]
8000313c:	e58d5014 	str	r5, [r13, #20]
80003140:	e58d3010 	str	r3, [r13, #16]
80003144:	ebfffefc 	bl	80002d3c <MMC0CmdSend>
80003148:	e1500005 	cmp	r0, r5
8000314c:	1a000002 	bne	8000315c <MMCCardInit+0x58>
80003150:	e3a00000 	mov	r0, #0
80003154:	e28dd034 	add	r13, r13, #52	; 0x34
80003158:	e8bd83f0 	pop	{r4, r5, r6, r7, r8, r9, r15}
8000315c:	e1a00004 	mov	r0, r4
80003160:	e28d100c 	add	r1, r13, #12
80003164:	e3a03037 	mov	r3, #55	; 0x37
80003168:	e58d5010 	str	r5, [r13, #16]
8000316c:	e58d300c 	str	r3, [r13, #12]
80003170:	e58d5014 	str	r5, [r13, #20]
80003174:	ebffff4e 	bl	80002eb4 <MMCAppCmdSend>
80003178:	e3500001 	cmp	r0, #1
8000317c:	e1a03000 	mov	r3, r0
80003180:	1afffff2 	bne	80003150 <MMCCardInit+0x4c>
80003184:	e5942028 	ldr	r2, [r4, #40]	; 0x28
80003188:	e1a00004 	mov	r0, r4
8000318c:	e28d100c 	add	r1, r13, #12
80003190:	e5825004 	str	r5, [r2, #4]
80003194:	e58d500c 	str	r5, [r13, #12]
80003198:	e58d3010 	str	r3, [r13, #16]
8000319c:	e58d5014 	str	r5, [r13, #20]
800031a0:	ebfffee5 	bl	80002d3c <MMC0CmdSend>
800031a4:	e3500000 	cmp	r0, #0
800031a8:	0affffe8 	beq	80003150 <MMCCardInit+0x4c>
800031ac:	e28d100c 	add	r1, r13, #12
800031b0:	e1a00004 	mov	r0, r4
800031b4:	e3a02008 	mov	r2, #8
800031b8:	e30031aa 	movw	r3, #426	; 0x1aa
800031bc:	e58d200c 	str	r2, [r13, #12]
800031c0:	e3a08902 	mov	r8, #32768	; 0x8000
800031c4:	e58d3014 	str	r3, [r13, #20]
800031c8:	e34480ff 	movt	r8, #16639	; 0x40ff
800031cc:	e58d5010 	str	r5, [r13, #16]
800031d0:	ebfffed9 	bl	80002d3c <MMC0CmdSend>
800031d4:	e1a00004 	mov	r0, r4
800031d8:	e28d100c 	add	r1, r13, #12
800031dc:	e58d5010 	str	r5, [r13, #16]
800031e0:	e3a09029 	mov	r9, #41	; 0x29
800031e4:	e58d8014 	str	r8, [r13, #20]
800031e8:	e58d900c 	str	r9, [r13, #12]
800031ec:	ebffff30 	bl	80002eb4 <MMCAppCmdSend>
800031f0:	e3500000 	cmp	r0, #0
800031f4:	0affffd5 	beq	80003150 <MMCCardInit+0x4c>
800031f8:	e30f7fff 	movw	r7, #65535	; 0xffff
800031fc:	ea000001 	b	80003208 <MMCCardInit+0x104>
80003200:	e2577001 	subs	r7, r7, #1
80003204:	3a00000a 	bcc	80003234 <MMCCardInit+0x130>
80003208:	e1a00004 	mov	r0, r4
8000320c:	e28d100c 	add	r1, r13, #12
80003210:	e58d900c 	str	r9, [r13, #12]
80003214:	e58d5010 	str	r5, [r13, #16]
80003218:	e58d8014 	str	r8, [r13, #20]
8000321c:	ebffff24 	bl	80002eb4 <MMCAppCmdSend>
80003220:	e59d3020 	ldr	r3, [r13, #32]
80003224:	e3530000 	cmp	r3, #0
80003228:	aafffff4 	bge	80003200 <MMCCardInit+0xfc>
8000322c:	e3570000 	cmp	r7, #0
80003230:	0affffc6 	beq	80003150 <MMCCardInit+0x4c>
80003234:	e5863034 	str	r3, [r6, #52]	; 0x34
80003238:	e28d100c 	add	r1, r13, #12
8000323c:	e7e03f53 	ubfx	r3, r3, #30, #1
80003240:	e1a00004 	mov	r0, r4
80003244:	e5c6303b 	strb	r3, [r6, #59]	; 0x3b
80003248:	e3a07020 	mov	r7, #32
8000324c:	e3a03002 	mov	r3, #2
80003250:	e3a05000 	mov	r5, #0
80003254:	e58d300c 	str	r3, [r13, #12]
80003258:	e58d7010 	str	r7, [r13, #16]
8000325c:	e58d5014 	str	r5, [r13, #20]
80003260:	ebfffeb5 	bl	80002d3c <MMC0CmdSend>
80003264:	e08d1007 	add	r1, r13, r7
80003268:	e3a02010 	mov	r2, #16
8000326c:	e1a08000 	mov	r8, r0
80003270:	e2860024 	add	r0, r6, #36	; 0x24
80003274:	ebfff7c5 	bl	80001190 <memcpy>
80003278:	e1580005 	cmp	r8, r5
8000327c:	0affffb3 	beq	80003150 <MMCCardInit+0x4c>
80003280:	e1a00004 	mov	r0, r4
80003284:	e28d100c 	add	r1, r13, #12
80003288:	e3a03003 	mov	r3, #3
8000328c:	e58d5010 	str	r5, [r13, #16]
80003290:	e58d300c 	str	r3, [r13, #12]
80003294:	e58d5014 	str	r5, [r13, #20]
80003298:	ebfffea7 	bl	80002d3c <MMC0CmdSend>
8000329c:	e1dd32b2 	ldrh	r3, [r13, #34]	; 0x22
800032a0:	e5863008 	str	r3, [r6, #8]
800032a4:	e3500000 	cmp	r0, #0
800032a8:	0affffa8 	beq	80003150 <MMCCardInit+0x4c>
800032ac:	e28d100c 	add	r1, r13, #12
800032b0:	e1a00004 	mov	r0, r4
800032b4:	e1a03803 	lsl	r3, r3, #16
800032b8:	e58d7010 	str	r7, [r13, #16]
800032bc:	e58d3014 	str	r3, [r13, #20]
800032c0:	e3a03009 	mov	r3, #9
800032c4:	e58d300c 	str	r3, [r13, #12]
800032c8:	ebfffe9b 	bl	80002d3c <MMC0CmdSend>
800032cc:	e28d1020 	add	r1, r13, #32
800032d0:	e3a02010 	mov	r2, #16
800032d4:	e1a05000 	mov	r5, r0
800032d8:	e2860014 	add	r0, r6, #20
800032dc:	ebfff7ab 	bl	80001190 <memcpy>
800032e0:	e3550000 	cmp	r5, #0
800032e4:	0affff99 	beq	80003150 <MMCCardInit+0x4c>
800032e8:	e596e020 	ldr	r14, [r6, #32]
800032ec:	e1b03f2e 	lsrs	r3, r14, #30
800032f0:	0a000068 	beq	80003498 <MMCCardInit+0x394>
800032f4:	e1d601ba 	ldrh	r0, [r6, #26]
800032f8:	e3a03001 	mov	r3, #1
800032fc:	e596101c 	ldr	r1, [r6, #28]
80003300:	e5c6e03a 	strb	r14, [r6, #58]	; 0x3a
80003304:	e1a00980 	lsl	r0, r0, #19
80003308:	e7e31851 	ubfx	r1, r1, #16, #4
8000330c:	e2800702 	add	r0, r0, #524288	; 0x80000
80003310:	e1a01113 	lsl	r1, r3, r1
80003314:	e5860044 	str	r0, [r6, #68]	; 0x44
80003318:	e586103c 	str	r1, [r6, #60]	; 0x3c
8000331c:	ebfff852 	bl	8000146c <__aeabi_uidiv>
80003320:	e5860040 	str	r0, [r6, #64]	; 0x40
80003324:	e5d6303b 	ldrb	r3, [r6, #59]	; 0x3b
80003328:	e3530000 	cmp	r3, #0
8000332c:	1a00000b 	bne	80003360 <MMCCardInit+0x25c>
80003330:	e1a00004 	mov	r0, r4
80003334:	e28d100c 	add	r1, r13, #12
80003338:	e3a02010 	mov	r2, #16
8000333c:	e3a03001 	mov	r3, #1
80003340:	e58d200c 	str	r2, [r13, #12]
80003344:	e3a05c02 	mov	r5, #512	; 0x200
80003348:	e58d3010 	str	r3, [r13, #16]
8000334c:	e58d5014 	str	r5, [r13, #20]
80003350:	ebfffe79 	bl	80002d3c <MMC0CmdSend>
80003354:	e3500000 	cmp	r0, #0
80003358:	0affff7c 	beq	80003150 <MMCCardInit+0x4c>
8000335c:	e586503c 	str	r5, [r6, #60]	; 0x3c
80003360:	e3a02007 	mov	r2, #7
80003364:	e3a03010 	mov	r3, #16
80003368:	e58d200c 	str	r2, [r13, #12]
8000336c:	e1a00004 	mov	r0, r4
80003370:	e58d3010 	str	r3, [r13, #16]
80003374:	e28d100c 	add	r1, r13, #12
80003378:	e5963008 	ldr	r3, [r6, #8]
8000337c:	e1a03803 	lsl	r3, r3, #16
80003380:	e58d3014 	str	r3, [r13, #20]
80003384:	ebfffe6c 	bl	80002d3c <MMC0CmdSend>
80003388:	e3500000 	cmp	r0, #0
8000338c:	0affff6f 	beq	80003150 <MMCCardInit+0x4c>
80003390:	e3a02037 	mov	r2, #55	; 0x37
80003394:	e3a03000 	mov	r3, #0
80003398:	e58d200c 	str	r2, [r13, #12]
8000339c:	e1a00004 	mov	r0, r4
800033a0:	e58d3010 	str	r3, [r13, #16]
800033a4:	e28d100c 	add	r1, r13, #12
800033a8:	e5963008 	ldr	r3, [r6, #8]
800033ac:	e1a03803 	lsl	r3, r3, #16
800033b0:	e58d3014 	str	r3, [r13, #20]
800033b4:	ebfffe60 	bl	80002d3c <MMC0CmdSend>
800033b8:	e3500000 	cmp	r0, #0
800033bc:	0affff63 	beq	80003150 <MMCCardInit+0x4c>
800033c0:	e30c5000 	movw	r5, #49152	; 0xc000
800033c4:	e3a07001 	mov	r7, #1
800033c8:	e3485000 	movt	r5, #32768	; 0x8000
800033cc:	e1a01007 	mov	r1, r7
800033d0:	e1a02005 	mov	r2, r5
800033d4:	e1a00004 	mov	r0, r4
800033d8:	e3a03008 	mov	r3, #8
800033dc:	e58d7000 	str	r7, [r13]
800033e0:	eb000dce 	bl	80006b20 <MMCXferSetup>
800033e4:	e3a02033 	mov	r2, #51	; 0x33
800033e8:	e3a030c0 	mov	r3, #192	; 0xc0
800033ec:	e58d200c 	str	r2, [r13, #12]
800033f0:	e58d3010 	str	r3, [r13, #16]
800033f4:	e28d100c 	add	r1, r13, #12
800033f8:	e5963008 	ldr	r3, [r6, #8]
800033fc:	e1a00004 	mov	r0, r4
80003400:	e58d5018 	str	r5, [r13, #24]
80003404:	e58d701c 	str	r7, [r13, #28]
80003408:	e1a03803 	lsl	r3, r3, #16
8000340c:	e58d3014 	str	r3, [r13, #20]
80003410:	ebfffe49 	bl	80002d3c <MMC0CmdSend>
80003414:	e3500000 	cmp	r0, #0
80003418:	0affff4c 	beq	80003150 <MMCCardInit+0x4c>
8000341c:	e1a00004 	mov	r0, r4
80003420:	eb000d40 	bl	80006928 <mmc0_get_xfer_status>
80003424:	e3500000 	cmp	r0, #0
80003428:	0affff48 	beq	80003150 <MMCCardInit+0x4c>
8000342c:	e3a01080 	mov	r1, #128	; 0x80
80003430:	e1a00005 	mov	r0, r5
80003434:	ebfff6ac 	bl	80000eec <CP15DCacheFlushBuff>
80003438:	e5d51002 	ldrb	r1, [r5, #2]
8000343c:	e5d53003 	ldrb	r3, [r5, #3]
80003440:	e1a00007 	mov	r0, r7
80003444:	e5d52000 	ldrb	r2, [r5]
80003448:	e5d5c001 	ldrb	r12, [r5, #1]
8000344c:	e1a01801 	lsl	r1, r1, #16
80003450:	e1813c03 	orr	r3, r1, r3, lsl #24
80003454:	e1833002 	orr	r3, r3, r2
80003458:	e183340c 	orr	r3, r3, r12, lsl #8
8000345c:	e586300c 	str	r3, [r6, #12]
80003460:	e5d51006 	ldrb	r1, [r5, #6]
80003464:	e203e00f 	and	r14, r3, #15
80003468:	e5d54007 	ldrb	r4, [r5, #7]
8000346c:	e7e33453 	ubfx	r3, r3, #8, #4
80003470:	e5d52004 	ldrb	r2, [r5, #4]
80003474:	e5d5c005 	ldrb	r12, [r5, #5]
80003478:	e1a01801 	lsl	r1, r1, #16
8000347c:	e1811c04 	orr	r1, r1, r4, lsl #24
80003480:	e5c63039 	strb	r3, [r6, #57]	; 0x39
80003484:	e1812002 	orr	r2, r1, r2
80003488:	e5c6e038 	strb	r14, [r6, #56]	; 0x38
8000348c:	e182340c 	orr	r3, r2, r12, lsl #8
80003490:	e5863010 	str	r3, [r6, #16]
80003494:	eaffff2e 	b	80003154 <MMCCardInit+0x50>
80003498:	e5963018 	ldr	r3, [r6, #24]
8000349c:	e3a0c001 	mov	r12, #1
800034a0:	e596101c 	ldr	r1, [r6, #28]
800034a4:	e7e207d3 	ubfx	r0, r3, #15, #3
800034a8:	e5c6e03a 	strb	r14, [r6, #58]	; 0x3a
800034ac:	e7e95051 	ubfx	r5, r1, #0, #10
800034b0:	e1a02f23 	lsr	r2, r3, #30
800034b4:	e2803002 	add	r3, r0, #2
800034b8:	e7e31851 	ubfx	r1, r1, #16, #4
800034bc:	e1822105 	orr	r2, r2, r5, lsl #2
800034c0:	e1a0011c 	lsl	r0, r12, r1
800034c4:	e082200c 	add	r2, r2, r12
800034c8:	e586003c 	str	r0, [r6, #60]	; 0x3c
800034cc:	e1a03312 	lsl	r3, r2, r3
800034d0:	e5863040 	str	r3, [r6, #64]	; 0x40
800034d4:	e1a03113 	lsl	r3, r3, r1
800034d8:	e5863044 	str	r3, [r6, #68]	; 0x44
800034dc:	eaffff90 	b	80003324 <MMCCardInit+0x220>

800034e0 <MMCWriteCmdSend>:
800034e0:	e92d40f0 	push	{r4, r5, r6, r7, r14}
800034e4:	e1a07001 	mov	r7, r1
800034e8:	e5901028 	ldr	r1, [r0, #40]	; 0x28
800034ec:	e1a04003 	mov	r4, r3
800034f0:	e24dd034 	sub	r13, r13, #52	; 0x34
800034f4:	e1a05000 	mov	r5, r0
800034f8:	e1a00007 	mov	r0, r7
800034fc:	e1a06002 	mov	r6, r2
80003500:	e5d1303b 	ldrb	r3, [r1, #59]	; 0x3b
80003504:	e3530000 	cmp	r3, #0
80003508:	0591303c 	ldreq	r3, [r1, #60]	; 0x3c
8000350c:	e1a01484 	lsl	r1, r4, #9
80003510:	00060293 	muleq	r6, r3, r2
80003514:	ebfff64a 	bl	80000e44 <CP15DCacheCleanBuff>
80003518:	e1a02007 	mov	r2, r7
8000351c:	e1a00005 	mov	r0, r5
80003520:	e3a01000 	mov	r1, #0
80003524:	e3a03c02 	mov	r3, #512	; 0x200
80003528:	e58d4000 	str	r4, [r13]
8000352c:	eb000d7b 	bl	80006b20 <MMCXferSetup>
80003530:	e3540001 	cmp	r4, #1
80003534:	e1a00005 	mov	r0, r5
80003538:	e28d100c 	add	r1, r13, #12
8000353c:	e3a03d05 	mov	r3, #320	; 0x140
80003540:	83a02019 	movhi	r2, #25
80003544:	e58d3010 	str	r3, [r13, #16]
80003548:	83a03f52 	movhi	r3, #328	; 0x148
8000354c:	93a03018 	movls	r3, #24
80003550:	858d3010 	strhi	r3, [r13, #16]
80003554:	958d300c 	strls	r3, [r13, #12]
80003558:	e58d6014 	str	r6, [r13, #20]
8000355c:	e58d401c 	str	r4, [r13, #28]
80003560:	858d200c 	strhi	r2, [r13, #12]
80003564:	ebfffdf4 	bl	80002d3c <MMC0CmdSend>
80003568:	e3500000 	cmp	r0, #0
8000356c:	1a000002 	bne	8000357c <MMCWriteCmdSend+0x9c>
80003570:	e3a00000 	mov	r0, #0
80003574:	e28dd034 	add	r13, r13, #52	; 0x34
80003578:	e8bd80f0 	pop	{r4, r5, r6, r7, r15}
8000357c:	e1a00005 	mov	r0, r5
80003580:	eb000ce8 	bl	80006928 <mmc0_get_xfer_status>
80003584:	e3500000 	cmp	r0, #0
80003588:	0afffff8 	beq	80003570 <MMCWriteCmdSend+0x90>
8000358c:	e59d301c 	ldr	r3, [r13, #28]
80003590:	e3530001 	cmp	r3, #1
80003594:	93a00001 	movls	r0, #1
80003598:	9afffff5 	bls	80003574 <MMCWriteCmdSend+0x94>
8000359c:	e1a00005 	mov	r0, r5
800035a0:	ebfffebe 	bl	800030a0 <MMCStopCmdSend>
800035a4:	e2900000 	adds	r0, r0, #0
800035a8:	13a00001 	movne	r0, #1
800035ac:	e28dd034 	add	r13, r13, #52	; 0x34
800035b0:	e8bd80f0 	pop	{r4, r5, r6, r7, r15}

800035b4 <MMCReadCmdSend>:
800035b4:	e590c028 	ldr	r12, [r0, #40]	; 0x28
800035b8:	e92d40f0 	push	{r4, r5, r6, r7, r14}
800035bc:	e1a05003 	mov	r5, r3
800035c0:	e5dc303b 	ldrb	r3, [r12, #59]	; 0x3b
800035c4:	e24dd034 	sub	r13, r13, #52	; 0x34
800035c8:	e1a07001 	mov	r7, r1
800035cc:	e1a06002 	mov	r6, r2
800035d0:	e3530000 	cmp	r3, #0
800035d4:	e3a01001 	mov	r1, #1
800035d8:	e1a04000 	mov	r4, r0
800035dc:	059c303c 	ldreq	r3, [r12, #60]	; 0x3c
800035e0:	e58d5000 	str	r5, [r13]
800035e4:	00060293 	muleq	r6, r3, r2
800035e8:	e1a02007 	mov	r2, r7
800035ec:	e3a03c02 	mov	r3, #512	; 0x200
800035f0:	eb000d4a 	bl	80006b20 <MMCXferSetup>
800035f4:	e3550001 	cmp	r5, #1
800035f8:	e1a00004 	mov	r0, r4
800035fc:	e28d100c 	add	r1, r13, #12
80003600:	e3a030c0 	mov	r3, #192	; 0xc0
80003604:	83a020c8 	movhi	r2, #200	; 0xc8
80003608:	e58d3010 	str	r3, [r13, #16]
8000360c:	83a03012 	movhi	r3, #18
80003610:	93a03011 	movls	r3, #17
80003614:	e58d6014 	str	r6, [r13, #20]
80003618:	e58d501c 	str	r5, [r13, #28]
8000361c:	e58d300c 	str	r3, [r13, #12]
80003620:	858d2010 	strhi	r2, [r13, #16]
80003624:	ebfffdc4 	bl	80002d3c <MMC0CmdSend>
80003628:	e3500000 	cmp	r0, #0
8000362c:	1a000002 	bne	8000363c <MMCReadCmdSend+0x88>
80003630:	e3a00000 	mov	r0, #0
80003634:	e28dd034 	add	r13, r13, #52	; 0x34
80003638:	e8bd80f0 	pop	{r4, r5, r6, r7, r15}
8000363c:	e1a00004 	mov	r0, r4
80003640:	eb000cb8 	bl	80006928 <mmc0_get_xfer_status>
80003644:	e3500000 	cmp	r0, #0
80003648:	0afffff8 	beq	80003630 <MMCReadCmdSend+0x7c>
8000364c:	e59d301c 	ldr	r3, [r13, #28]
80003650:	e3530001 	cmp	r3, #1
80003654:	9a000003 	bls	80003668 <MMCReadCmdSend+0xb4>
80003658:	e1a00004 	mov	r0, r4
8000365c:	ebfffe8f 	bl	800030a0 <MMCStopCmdSend>
80003660:	e3500000 	cmp	r0, #0
80003664:	0afffff1 	beq	80003630 <MMCReadCmdSend+0x7c>
80003668:	e1a00007 	mov	r0, r7
8000366c:	e1a01485 	lsl	r1, r5, #9
80003670:	ebfff61d 	bl	80000eec <CP15DCacheFlushBuff>
80003674:	e3a00001 	mov	r0, #1
80003678:	e28dd034 	add	r13, r13, #52	; 0x34
8000367c:	e8bd80f0 	pop	{r4, r5, r6, r7, r15}

80003680 <disk_initialize>:
80003680:	e3500001 	cmp	r0, #1
80003684:	9a000001 	bls	80003690 <disk_initialize+0x10>
80003688:	e3a00002 	mov	r0, #2
8000368c:	e12fff1e 	bx	r14
80003690:	e3500000 	cmp	r0, #0
80003694:	1a000015 	bne	800036f0 <disk_initialize+0x70>
80003698:	e92d4038 	push	{r3, r4, r5, r14}
8000369c:	e30d4084 	movw	r4, #53380	; 0xd084
800036a0:	e3484001 	movt	r4, #32769	; 0x8001
800036a4:	e5943008 	ldr	r3, [r4, #8]
800036a8:	e3530001 	cmp	r3, #1
800036ac:	08bd8038 	popeq	{r3, r4, r5, r15}
800036b0:	e5945000 	ldr	r5, [r4]
800036b4:	e5950000 	ldr	r0, [r5]
800036b8:	ebfffe91 	bl	80003104 <MMCCardInit>
800036bc:	e3500000 	cmp	r0, #0
800036c0:	0a00000c 	beq	800036f8 <disk_initialize+0x78>
800036c4:	e5953004 	ldr	r3, [r5, #4]
800036c8:	e3530000 	cmp	r3, #0
800036cc:	0a00000e 	beq	8000370c <disk_initialize+0x8c>
800036d0:	e3530001 	cmp	r3, #1
800036d4:	0a00001f 	beq	80003758 <disk_initialize+0xd8>
800036d8:	e5950000 	ldr	r0, [r5]
800036dc:	ebfffe2a 	bl	80002f8c <MMCTranSpeedSet>
800036e0:	e3a03001 	mov	r3, #1
800036e4:	e3a00000 	mov	r0, #0
800036e8:	e5843008 	str	r3, [r4, #8]
800036ec:	e8bd8038 	pop	{r3, r4, r5, r15}
800036f0:	e3a00000 	mov	r0, #0
800036f4:	e12fff1e 	bx	r14
800036f8:	e30703b8 	movw	r0, #29624	; 0x73b8
800036fc:	e3480000 	movt	r0, #32768	; 0x8000
80003700:	ebfff763 	bl	80001494 <ConsolePrintf>
80003704:	e3a00001 	mov	r0, #1
80003708:	e8bd8038 	pop	{r3, r4, r5, r15}
8000370c:	e30703d0 	movw	r0, #29648	; 0x73d0
80003710:	e5d51038 	ldrb	r1, [r5, #56]	; 0x38
80003714:	e3480000 	movt	r0, #32768	; 0x8000
80003718:	ebfff75d 	bl	80001494 <ConsolePrintf>
8000371c:	e5d5303b 	ldrb	r3, [r5, #59]	; 0x3b
80003720:	e3530000 	cmp	r3, #0
80003724:	1a000010 	bne	8000376c <disk_initialize+0xec>
80003728:	e5d5303a 	ldrb	r3, [r5, #58]	; 0x3a
8000372c:	e353005a 	cmp	r3, #90	; 0x5a
80003730:	0a000011 	beq	8000377c <disk_initialize+0xfc>
80003734:	e3070400 	movw	r0, #29696	; 0x7400
80003738:	e3480000 	movt	r0, #32768	; 0x8000
8000373c:	ebfff754 	bl	80001494 <ConsolePrintf>
80003740:	e5953004 	ldr	r3, [r5, #4]
80003744:	e3530000 	cmp	r3, #0
80003748:	1affffe2 	bne	800036d8 <disk_initialize+0x58>
8000374c:	e5950000 	ldr	r0, [r5]
80003750:	ebfffdec 	bl	80002f08 <MMCBusWidthSet>
80003754:	eaffffdf 	b	800036d8 <disk_initialize+0x58>
80003758:	e3070404 	movw	r0, #29700	; 0x7404
8000375c:	e3e01000 	mvn	r1, #0
80003760:	e3480000 	movt	r0, #32768	; 0x8000
80003764:	ebfff74a 	bl	80001494 <ConsolePrintf>
80003768:	eafffff4 	b	80003740 <disk_initialize+0xc0>
8000376c:	e30703e4 	movw	r0, #29668	; 0x73e4
80003770:	e3480000 	movt	r0, #32768	; 0x8000
80003774:	ebfff746 	bl	80001494 <ConsolePrintf>
80003778:	eaffffea 	b	80003728 <disk_initialize+0xa8>
8000377c:	e30703f4 	movw	r0, #29684	; 0x73f4
80003780:	e3480000 	movt	r0, #32768	; 0x8000
80003784:	ebfff742 	bl	80001494 <ConsolePrintf>
80003788:	eaffffe9 	b	80003734 <disk_initialize+0xb4>

8000378c <disk_status>:
8000378c:	e3a00000 	mov	r0, #0
80003790:	e12fff1e 	bx	r14

80003794 <disk_read>:
80003794:	e3500000 	cmp	r0, #0
80003798:	0a000001 	beq	800037a4 <disk_read+0x10>
8000379c:	e3a00001 	mov	r0, #1
800037a0:	e12fff1e 	bx	r14
800037a4:	e92d41f0 	push	{r4, r5, r6, r7, r8, r14}
800037a8:	e1a05003 	mov	r5, r3
800037ac:	e30d3084 	movw	r3, #53380	; 0xd084
800037b0:	e1a04000 	mov	r4, r0
800037b4:	e3483001 	movt	r3, #32769	; 0x8001
800037b8:	e3a00903 	mov	r0, #49152	; 0xc000
800037bc:	e5938000 	ldr	r8, [r3]
800037c0:	e1a06002 	mov	r6, r2
800037c4:	e1a07001 	mov	r7, r1
800037c8:	e3440804 	movt	r0, #18436	; 0x4804
800037cc:	e3a01502 	mov	r1, #8388608	; 0x800000
800037d0:	ebfff322 	bl	80000460 <gpio_on>
800037d4:	e1a01007 	mov	r1, r7
800037d8:	e1a02006 	mov	r2, r6
800037dc:	e1a03005 	mov	r3, r5
800037e0:	e5980000 	ldr	r0, [r8]
800037e4:	ebffff72 	bl	800035b4 <MMCReadCmdSend>
800037e8:	e3500001 	cmp	r0, #1
800037ec:	0a000001 	beq	800037f8 <disk_read+0x64>
800037f0:	e3a00001 	mov	r0, #1
800037f4:	e8bd81f0 	pop	{r4, r5, r6, r7, r8, r15}
800037f8:	e3a00903 	mov	r0, #49152	; 0xc000
800037fc:	e3a01502 	mov	r1, #8388608	; 0x800000
80003800:	e3440804 	movt	r0, #18436	; 0x4804
80003804:	ebfff317 	bl	80000468 <gpio_off>
80003808:	e1a00004 	mov	r0, r4
8000380c:	e8bd81f0 	pop	{r4, r5, r6, r7, r8, r15}

80003810 <disk_write>:
80003810:	e3500000 	cmp	r0, #0
80003814:	0a000001 	beq	80003820 <disk_write+0x10>
80003818:	e3a00001 	mov	r0, #1
8000381c:	e12fff1e 	bx	r14
80003820:	e92d41f0 	push	{r4, r5, r6, r7, r8, r14}
80003824:	e1a05003 	mov	r5, r3
80003828:	e30d3084 	movw	r3, #53380	; 0xd084
8000382c:	e1a04000 	mov	r4, r0
80003830:	e3483001 	movt	r3, #32769	; 0x8001
80003834:	e3a00903 	mov	r0, #49152	; 0xc000
80003838:	e5938000 	ldr	r8, [r3]
8000383c:	e1a07001 	mov	r7, r1
80003840:	e3440804 	movt	r0, #18436	; 0x4804
80003844:	e3a01401 	mov	r1, #16777216	; 0x1000000
80003848:	e1a06002 	mov	r6, r2
8000384c:	ebfff303 	bl	80000460 <gpio_on>
80003850:	e3a00001 	mov	r0, #1
80003854:	ebfff4c6 	bl	80000b74 <tim_delay>
80003858:	e1a01007 	mov	r1, r7
8000385c:	e5980000 	ldr	r0, [r8]
80003860:	e1a02006 	mov	r2, r6
80003864:	e1a03005 	mov	r3, r5
80003868:	ebffff1c 	bl	800034e0 <MMCWriteCmdSend>
8000386c:	e3500001 	cmp	r0, #1
80003870:	0a000001 	beq	8000387c <disk_write+0x6c>
80003874:	e3a00001 	mov	r0, #1
80003878:	e8bd81f0 	pop	{r4, r5, r6, r7, r8, r15}
8000387c:	e3a00903 	mov	r0, #49152	; 0xc000
80003880:	e3a01401 	mov	r1, #16777216	; 0x1000000
80003884:	e3440804 	movt	r0, #18436	; 0x4804
80003888:	ebfff2f6 	bl	80000468 <gpio_off>
8000388c:	e1a00004 	mov	r0, r4
80003890:	e8bd81f0 	pop	{r4, r5, r6, r7, r8, r15}

80003894 <disk_ioctl>:
80003894:	e3a00000 	mov	r0, #0
80003898:	e12fff1e 	bx	r14

8000389c <get_fattime>:
8000389c:	e3002b20 	movw	r2, #2848	; 0xb20
800038a0:	e3003b24 	movw	r3, #2852	; 0xb24
800038a4:	e3482000 	movt	r2, #32768	; 0x8000
800038a8:	e3483000 	movt	r3, #32768	; 0x8000
800038ac:	e92d4ff0 	push	{r4, r5, r6, r7, r8, r9, r10, r11, r14}
800038b0:	e3000b28 	movw	r0, #2856	; 0xb28
800038b4:	e5926000 	ldr	r6, [r2]
800038b8:	e3480000 	movt	r0, #32768	; 0x8000
800038bc:	e593c000 	ldr	r12, [r3]
800038c0:	e300eb2c 	movw	r14, #2860	; 0xb2c
800038c4:	e5907000 	ldr	r7, [r0]
800038c8:	e7e21256 	ubfx	r1, r6, #4, #3
800038cc:	e7e0325c 	ubfx	r3, r12, #4, #1
800038d0:	e348e000 	movt	r14, #32768	; 0x8000
800038d4:	e3000b30 	movw	r0, #2864	; 0xb30
800038d8:	e59eb000 	ldr	r11, [r14]
800038dc:	e3480000 	movt	r0, #32768	; 0x8000
800038e0:	e3005b34 	movw	r5, #2868	; 0xb34
800038e4:	e590e000 	ldr	r14, [r0]
800038e8:	e1a02103 	lsl	r2, r3, #2
800038ec:	e7e18257 	ubfx	r8, r7, #4, #2
800038f0:	e3485000 	movt	r5, #32768	; 0x8000
800038f4:	e0811101 	add	r1, r1, r1, lsl #2
800038f8:	e595a000 	ldr	r10, [r5]
800038fc:	e206600f 	and	r6, r6, #15
80003900:	e0822003 	add	r2, r2, r3
80003904:	e7e1425b 	ubfx	r4, r11, #4, #2
80003908:	e20c900f 	and	r9, r12, #15
8000390c:	e0861081 	add	r1, r6, r1, lsl #1
80003910:	e7e2c25e 	ubfx	r12, r14, #4, #3
80003914:	e0888108 	add	r8, r8, r8, lsl #2
80003918:	e7e2025a 	ubfx	r0, r10, #4, #3
8000391c:	e0892082 	add	r2, r9, r2, lsl #1
80003920:	e207700f 	and	r7, r7, #15
80003924:	e0844104 	add	r4, r4, r4, lsl #2
80003928:	e20b500f 	and	r5, r11, #15
8000392c:	e1a01c81 	lsl	r1, r1, #25
80003930:	e0877088 	add	r7, r7, r8, lsl #1
80003934:	e08c610c 	add	r6, r12, r12, lsl #2
80003938:	e0854084 	add	r4, r5, r4, lsl #1
8000393c:	e1812a82 	orr	r2, r1, r2, lsl #21
80003940:	e20ee00f 	and	r14, r14, #15
80003944:	e0805100 	add	r5, r0, r0, lsl #2
80003948:	e1822807 	orr	r2, r2, r7, lsl #16
8000394c:	e08ec086 	add	r12, r14, r6, lsl #1
80003950:	e20a100f 	and	r1, r10, #15
80003954:	e1823584 	orr	r3, r2, r4, lsl #11
80003958:	e0810085 	add	r0, r1, r5, lsl #1
8000395c:	e183328c 	orr	r3, r3, r12, lsl #5
80003960:	e18300a0 	orr	r0, r3, r0, lsr #1
80003964:	e8bd8ff0 	pop	{r4, r5, r6, r7, r8, r9, r10, r11, r15}

80003968 <get_fileinfo>:
80003968:	e92d4070 	push	{r4, r5, r6, r14}
8000396c:	e2802009 	add	r2, r0, #9
80003970:	e5d1600c 	ldrb	r6, [r1, #12]
80003974:	e241c001 	sub	r12, r1, #1
80003978:	e280e011 	add	r14, r0, #17
8000397c:	e2064008 	and	r4, r6, #8
80003980:	e6ef4074 	uxtb	r4, r4
80003984:	e5fc3001 	ldrb	r3, [r12, #1]!
80003988:	e3530020 	cmp	r3, #32
8000398c:	0a000036 	beq	80003a6c <get_fileinfo+0x104>
80003990:	e3530005 	cmp	r3, #5
80003994:	03a030e5 	moveq	r3, #229	; 0xe5
80003998:	0a000005 	beq	800039b4 <get_fileinfo+0x4c>
8000399c:	e3540000 	cmp	r4, #0
800039a0:	e2435041 	sub	r5, r3, #65	; 0x41
800039a4:	0a000002 	beq	800039b4 <get_fileinfo+0x4c>
800039a8:	e3550019 	cmp	r5, #25
800039ac:	e2835020 	add	r5, r3, #32
800039b0:	96ef3075 	uxtbls	r3, r5
800039b4:	e4c23001 	strb	r3, [r2], #1
800039b8:	e152000e 	cmp	r2, r14
800039bc:	1afffff0 	bne	80003984 <get_fileinfo+0x1c>
800039c0:	e5d13008 	ldrb	r3, [r1, #8]
800039c4:	e3530020 	cmp	r3, #32
800039c8:	0a000011 	beq	80003a14 <get_fileinfo+0xac>
800039cc:	e2062010 	and	r2, r6, #16
800039d0:	e2814007 	add	r4, r1, #7
800039d4:	e28ec001 	add	r12, r14, #1
800039d8:	e3a0302e 	mov	r3, #46	; 0x2e
800039dc:	e6ef2072 	uxtb	r2, r2
800039e0:	e4ce3004 	strb	r3, [r14], #4
800039e4:	e5f43001 	ldrb	r3, [r4, #1]!
800039e8:	e3530020 	cmp	r3, #32
800039ec:	e2435041 	sub	r5, r3, #65	; 0x41
800039f0:	0a00001f 	beq	80003a74 <get_fileinfo+0x10c>
800039f4:	e3520000 	cmp	r2, #0
800039f8:	0a000002 	beq	80003a08 <get_fileinfo+0xa0>
800039fc:	e2836020 	add	r6, r3, #32
80003a00:	e3550019 	cmp	r5, #25
80003a04:	96ef3076 	uxtbls	r3, r6
80003a08:	e4cc3001 	strb	r3, [r12], #1
80003a0c:	e15c000e 	cmp	r12, r14
80003a10:	1afffff3 	bne	800039e4 <get_fileinfo+0x7c>
80003a14:	e3a03000 	mov	r3, #0
80003a18:	e5ce3000 	strb	r3, [r14]
80003a1c:	e5d1300b 	ldrb	r3, [r1, #11]
80003a20:	e5c03008 	strb	r3, [r0, #8]
80003a24:	e5d1c01e 	ldrb	r12, [r1, #30]
80003a28:	e5d1301f 	ldrb	r3, [r1, #31]
80003a2c:	e5d1201c 	ldrb	r2, [r1, #28]
80003a30:	e5d1e01d 	ldrb	r14, [r1, #29]
80003a34:	e1a0c80c 	lsl	r12, r12, #16
80003a38:	e18c3c03 	orr	r3, r12, r3, lsl #24
80003a3c:	e1833002 	orr	r3, r3, r2
80003a40:	e183340e 	orr	r3, r3, r14, lsl #8
80003a44:	e5803000 	str	r3, [r0]
80003a48:	e5d12019 	ldrb	r2, [r1, #25]
80003a4c:	e5d13018 	ldrb	r3, [r1, #24]
80003a50:	e1833402 	orr	r3, r3, r2, lsl #8
80003a54:	e1c030b4 	strh	r3, [r0, #4]
80003a58:	e5d12017 	ldrb	r2, [r1, #23]
80003a5c:	e5d13016 	ldrb	r3, [r1, #22]
80003a60:	e1833402 	orr	r3, r3, r2, lsl #8
80003a64:	e1c030b6 	strh	r3, [r0, #6]
80003a68:	e8bd8070 	pop	{r4, r5, r6, r15}
80003a6c:	e1a0e002 	mov	r14, r2
80003a70:	eaffffd2 	b	800039c0 <get_fileinfo+0x58>
80003a74:	e1a0e00c 	mov	r14, r12
80003a78:	eaffffe5 	b	80003a14 <get_fileinfo+0xac>

80003a7c <move_window>:
80003a7c:	e92d41f0 	push	{r4, r5, r6, r7, r8, r14}
80003a80:	e5906004 	ldr	r6, [r0, #4]
80003a84:	e1560001 	cmp	r6, r1
80003a88:	0a000006 	beq	80003aa8 <move_window+0x2c>
80003a8c:	e5d03028 	ldrb	r3, [r0, #40]	; 0x28
80003a90:	e1a07001 	mov	r7, r1
80003a94:	e1a04000 	mov	r4, r0
80003a98:	e3530000 	cmp	r3, #0
80003a9c:	1a00000d 	bne	80003ad8 <move_window+0x5c>
80003aa0:	e3570000 	cmp	r7, #0
80003aa4:	1a000001 	bne	80003ab0 <move_window+0x34>
80003aa8:	e3a00001 	mov	r0, #1
80003aac:	e8bd81f0 	pop	{r4, r5, r6, r7, r8, r15}
80003ab0:	e5d40027 	ldrb	r0, [r4, #39]	; 0x27
80003ab4:	e2841040 	add	r1, r4, #64	; 0x40
80003ab8:	e1a02007 	mov	r2, r7
80003abc:	e3a03001 	mov	r3, #1
80003ac0:	ebffff33 	bl	80003794 <disk_read>
80003ac4:	e3500000 	cmp	r0, #0
80003ac8:	1a000020 	bne	80003b50 <move_window+0xd4>
80003acc:	e3a00001 	mov	r0, #1
80003ad0:	e5847004 	str	r7, [r4, #4]
80003ad4:	e8bd81f0 	pop	{r4, r5, r6, r7, r8, r15}
80003ad8:	e2808040 	add	r8, r0, #64	; 0x40
80003adc:	e1a02006 	mov	r2, r6
80003ae0:	e5d00027 	ldrb	r0, [r0, #39]	; 0x27
80003ae4:	e3a03001 	mov	r3, #1
80003ae8:	e1a01008 	mov	r1, r8
80003aec:	ebffff47 	bl	80003810 <disk_write>
80003af0:	e3500000 	cmp	r0, #0
80003af4:	1a000015 	bne	80003b50 <move_window+0xd4>
80003af8:	e5943008 	ldr	r3, [r4, #8]
80003afc:	e5942010 	ldr	r2, [r4, #16]
80003b00:	e5c40028 	strb	r0, [r4, #40]	; 0x28
80003b04:	e0832002 	add	r2, r3, r2
80003b08:	e1560002 	cmp	r6, r2
80003b0c:	2affffe3 	bcs	80003aa0 <move_window+0x24>
80003b10:	e5d45026 	ldrb	r5, [r4, #38]	; 0x26
80003b14:	e3550001 	cmp	r5, #1
80003b18:	8a000001 	bhi	80003b24 <move_window+0xa8>
80003b1c:	eaffffdf 	b	80003aa0 <move_window+0x24>
80003b20:	e5943008 	ldr	r3, [r4, #8]
80003b24:	e0866003 	add	r6, r6, r3
80003b28:	e2455001 	sub	r5, r5, #1
80003b2c:	e5d40027 	ldrb	r0, [r4, #39]	; 0x27
80003b30:	e1a01008 	mov	r1, r8
80003b34:	e3a03001 	mov	r3, #1
80003b38:	e1a02006 	mov	r2, r6
80003b3c:	e6ef5075 	uxtb	r5, r5
80003b40:	ebffff32 	bl	80003810 <disk_write>
80003b44:	e3550001 	cmp	r5, #1
80003b48:	1afffff4 	bne	80003b20 <move_window+0xa4>
80003b4c:	eaffffd3 	b	80003aa0 <move_window+0x24>
80003b50:	e3a00000 	mov	r0, #0
80003b54:	e8bd81f0 	pop	{r4, r5, r6, r7, r8, r15}

80003b58 <put_cluster>:
80003b58:	e92d47f0 	push	{r4, r5, r6, r7, r8, r9, r10, r14}
80003b5c:	e1a04000 	mov	r4, r0
80003b60:	e5d06024 	ldrb	r6, [r0, #36]	; 0x24
80003b64:	e1a05001 	mov	r5, r1
80003b68:	e1a08002 	mov	r8, r2
80003b6c:	e5909010 	ldr	r9, [r0, #16]
80003b70:	e3560002 	cmp	r6, #2
80003b74:	0a000031 	beq	80003c40 <put_cluster+0xe8>
80003b78:	e3560003 	cmp	r6, #3
80003b7c:	0a000020 	beq	80003c04 <put_cluster+0xac>
80003b80:	e3560001 	cmp	r6, #1
80003b84:	0a000001 	beq	80003b90 <put_cluster+0x38>
80003b88:	e3a00000 	mov	r0, #0
80003b8c:	e8bd87f0 	pop	{r4, r5, r6, r7, r8, r9, r10, r15}
80003b90:	e6ff3071 	uxth	r3, r1
80003b94:	e0833083 	add	r3, r3, r3, lsl #1
80003b98:	e1a070c3 	asr	r7, r3, #1
80003b9c:	e6ffa077 	uxth	r10, r7
80003ba0:	e08914aa 	add	r1, r9, r10, lsr #9
80003ba4:	ebffffb4 	bl	80003a7c <move_window>
80003ba8:	e3500000 	cmp	r0, #0
80003bac:	0afffff5 	beq	80003b88 <put_cluster+0x30>
80003bb0:	e3150001 	tst	r5, #1
80003bb4:	e7e87057 	ubfx	r7, r7, #0, #9
80003bb8:	0a00002e 	beq	80003c78 <put_cluster+0x120>
80003bbc:	e0847007 	add	r7, r4, r7
80003bc0:	e28aa001 	add	r10, r10, #1
80003bc4:	e6ef3078 	uxtb	r3, r8
80003bc8:	e1a00004 	mov	r0, r4
80003bcc:	e5d72040 	ldrb	r2, [r7, #64]	; 0x40
80003bd0:	e6ffa07a 	uxth	r10, r10
80003bd4:	e202200f 	and	r2, r2, #15
80003bd8:	e08914aa 	add	r1, r9, r10, lsr #9
80003bdc:	e1823203 	orr	r3, r2, r3, lsl #4
80003be0:	e5c73040 	strb	r3, [r7, #64]	; 0x40
80003be4:	e5c46028 	strb	r6, [r4, #40]	; 0x28
80003be8:	ebffffa3 	bl	80003a7c <move_window>
80003bec:	e3500000 	cmp	r0, #0
80003bf0:	0affffe4 	beq	80003b88 <put_cluster+0x30>
80003bf4:	e7e8a05a 	ubfx	r10, r10, #0, #9
80003bf8:	e7e78258 	ubfx	r8, r8, #4, #8
80003bfc:	e084a00a 	add	r10, r4, r10
80003c00:	ea00002c 	b	80003cb8 <put_cluster+0x160>
80003c04:	e08913a1 	add	r1, r9, r1, lsr #7
80003c08:	ebffff9b 	bl	80003a7c <move_window>
80003c0c:	e3500000 	cmp	r0, #0
80003c10:	0affffdc 	beq	80003b88 <put_cluster+0x30>
80003c14:	e1a05105 	lsl	r5, r5, #2
80003c18:	e7e71458 	ubfx	r1, r8, #8, #8
80003c1c:	e2055f7f 	and	r5, r5, #508	; 0x1fc
80003c20:	e1a02828 	lsr	r2, r8, #16
80003c24:	e0845005 	add	r5, r4, r5
80003c28:	e1a03c28 	lsr	r3, r8, #24
80003c2c:	e5c58040 	strb	r8, [r5, #64]	; 0x40
80003c30:	e5c51041 	strb	r1, [r5, #65]	; 0x41
80003c34:	e5c52042 	strb	r2, [r5, #66]	; 0x42
80003c38:	e5c53043 	strb	r3, [r5, #67]	; 0x43
80003c3c:	ea00000a 	b	80003c6c <put_cluster+0x114>
80003c40:	e0891421 	add	r1, r9, r1, lsr #8
80003c44:	ebffff8c 	bl	80003a7c <move_window>
80003c48:	e3500000 	cmp	r0, #0
80003c4c:	0affffcd 	beq	80003b88 <put_cluster+0x30>
80003c50:	e1a05085 	lsl	r5, r5, #1
80003c54:	e30031fe 	movw	r3, #510	; 0x1fe
80003c58:	e0033005 	and	r3, r3, r5
80003c5c:	e7e72458 	ubfx	r2, r8, #8, #8
80003c60:	e0843003 	add	r3, r4, r3
80003c64:	e5c38040 	strb	r8, [r3, #64]	; 0x40
80003c68:	e5c32041 	strb	r2, [r3, #65]	; 0x41
80003c6c:	e3a00001 	mov	r0, #1
80003c70:	e5c40028 	strb	r0, [r4, #40]	; 0x28
80003c74:	e8bd87f0 	pop	{r4, r5, r6, r7, r8, r9, r10, r15}
80003c78:	e28aa001 	add	r10, r10, #1
80003c7c:	e0847007 	add	r7, r4, r7
80003c80:	e1a00004 	mov	r0, r4
80003c84:	e6ffa07a 	uxth	r10, r10
80003c88:	e5c78040 	strb	r8, [r7, #64]	; 0x40
80003c8c:	e5c46028 	strb	r6, [r4, #40]	; 0x28
80003c90:	e08914aa 	add	r1, r9, r10, lsr #9
80003c94:	ebffff78 	bl	80003a7c <move_window>
80003c98:	e3500000 	cmp	r0, #0
80003c9c:	0affffb9 	beq	80003b88 <put_cluster+0x30>
80003ca0:	e7e8a05a 	ubfx	r10, r10, #0, #9
80003ca4:	e7e38458 	ubfx	r8, r8, #8, #4
80003ca8:	e084a00a 	add	r10, r4, r10
80003cac:	e5da3040 	ldrb	r3, [r10, #64]	; 0x40
80003cb0:	e3c3300f 	bic	r3, r3, #15
80003cb4:	e1838008 	orr	r8, r3, r8
80003cb8:	e5ca8040 	strb	r8, [r10, #64]	; 0x40
80003cbc:	eaffffea 	b	80003c6c <put_cluster+0x114>

80003cc0 <validate.part.0>:
80003cc0:	e92d4008 	push	{r3, r14}
80003cc4:	e5d00027 	ldrb	r0, [r0, #39]	; 0x27
80003cc8:	ebfffeaf 	bl	8000378c <disk_status>
80003ccc:	e2000001 	and	r0, r0, #1
80003cd0:	e8bd8008 	pop	{r3, r15}

80003cd4 <check_fs>:
80003cd4:	e92d4010 	push	{r4, r14}
80003cd8:	e1a02001 	mov	r2, r1
80003cdc:	e1a04000 	mov	r4, r0
80003ce0:	e3a03001 	mov	r3, #1
80003ce4:	e5d00027 	ldrb	r0, [r0, #39]	; 0x27
80003ce8:	e2841040 	add	r1, r4, #64	; 0x40
80003cec:	ebfffea8 	bl	80003794 <disk_read>
80003cf0:	e3500000 	cmp	r0, #0
80003cf4:	0a000001 	beq	80003d00 <check_fs+0x2c>
80003cf8:	e3a00002 	mov	r0, #2
80003cfc:	e8bd8010 	pop	{r4, r15}
80003d00:	e5d4123f 	ldrb	r1, [r4, #575]	; 0x23f
80003d04:	e30a2a55 	movw	r2, #43605	; 0xaa55
80003d08:	e5d4323e 	ldrb	r3, [r4, #574]	; 0x23e
80003d0c:	e1833401 	orr	r3, r3, r1, lsl #8
80003d10:	e1530002 	cmp	r3, r2
80003d14:	1afffff7 	bne	80003cf8 <check_fs+0x24>
80003d18:	e3071410 	movw	r1, #29712	; 0x7410
80003d1c:	e2840076 	add	r0, r4, #118	; 0x76
80003d20:	e3481000 	movt	r1, #32768	; 0x8000
80003d24:	e3a02003 	mov	r2, #3
80003d28:	ebfff501 	bl	80001134 <memcmp>
80003d2c:	e3500000 	cmp	r0, #0
80003d30:	08bd8010 	popeq	{r4, r15}
80003d34:	e3071414 	movw	r1, #29716	; 0x7414
80003d38:	e2840092 	add	r0, r4, #146	; 0x92
80003d3c:	e3481000 	movt	r1, #32768	; 0x8000
80003d40:	e3a02005 	mov	r2, #5
80003d44:	ebfff4fa 	bl	80001134 <memcmp>
80003d48:	e3500000 	cmp	r0, #0
80003d4c:	1a000002 	bne	80003d5c <check_fs+0x88>
80003d50:	e5d40068 	ldrb	r0, [r4, #104]	; 0x68
80003d54:	e1a003a0 	lsr	r0, r0, #7
80003d58:	e8bd8010 	pop	{r4, r15}
80003d5c:	e3a00001 	mov	r0, #1
80003d60:	e8bd8010 	pop	{r4, r15}

80003d64 <auto_mount>:
80003d64:	e5903000 	ldr	r3, [r0]
80003d68:	e92d41f0 	push	{r4, r5, r6, r7, r8, r14}
80003d6c:	e5d3c000 	ldrb	r12, [r3]
80003d70:	e35c0020 	cmp	r12, #32
80003d74:	1a000002 	bne	80003d84 <auto_mount+0x20>
80003d78:	e5f3c001 	ldrb	r12, [r3, #1]!
80003d7c:	e35c0020 	cmp	r12, #32
80003d80:	0afffffc 	beq	80003d78 <auto_mount+0x14>
80003d84:	e24cc030 	sub	r12, r12, #48	; 0x30
80003d88:	e6ef407c 	uxtb	r4, r12
80003d8c:	e3540009 	cmp	r4, #9
80003d90:	8a000002 	bhi	80003da0 <auto_mount+0x3c>
80003d94:	e5d3c001 	ldrb	r12, [r3, #1]
80003d98:	e35c003a 	cmp	r12, #58	; 0x3a
80003d9c:	0a000020 	beq	80003e24 <auto_mount+0xc0>
80003da0:	e5d3c000 	ldrb	r12, [r3]
80003da4:	e35c002f 	cmp	r12, #47	; 0x2f
80003da8:	15803000 	strne	r3, [r0]
80003dac:	13a0c000 	movne	r12, #0
80003db0:	11a0400c 	movne	r4, r12
80003db4:	0a000013 	beq	80003e08 <auto_mount+0xa4>
80003db8:	e30c7080 	movw	r7, #49280	; 0xc080
80003dbc:	e3487000 	movt	r7, #32768	; 0x8000
80003dc0:	e797610c 	ldr	r6, [r7, r12, lsl #2]
80003dc4:	e3560000 	cmp	r6, #0
80003dc8:	0a00002d 	beq	80003e84 <auto_mount+0x120>
80003dcc:	e5816000 	str	r6, [r1]
80003dd0:	e1a05002 	mov	r5, r2
80003dd4:	e5d63024 	ldrb	r3, [r6, #36]	; 0x24
80003dd8:	e3530000 	cmp	r3, #0
80003ddc:	0a000019 	beq	80003e48 <auto_mount+0xe4>
80003de0:	e5d60027 	ldrb	r0, [r6, #39]	; 0x27
80003de4:	ebfffe68 	bl	8000378c <disk_status>
80003de8:	e3100001 	tst	r0, #1
80003dec:	1a000015 	bne	80003e48 <auto_mount+0xe4>
80003df0:	e3550000 	cmp	r5, #0
80003df4:	0a000030 	beq	80003ebc <auto_mount+0x158>
80003df8:	e2000004 	and	r0, r0, #4
80003dfc:	e21000ff 	ands	r0, r0, #255	; 0xff
80003e00:	1a00001d 	bne	80003e7c <auto_mount+0x118>
80003e04:	e8bd81f0 	pop	{r4, r5, r6, r7, r8, r15}
80003e08:	e3a04000 	mov	r4, #0
80003e0c:	e3540001 	cmp	r4, #1
80003e10:	e2833001 	add	r3, r3, #1
80003e14:	e5803000 	str	r3, [r0]
80003e18:	9a000008 	bls	80003e40 <auto_mount+0xdc>
80003e1c:	e3a00005 	mov	r0, #5
80003e20:	e8bd81f0 	pop	{r4, r5, r6, r7, r8, r15}
80003e24:	e5d3c002 	ldrb	r12, [r3, #2]
80003e28:	e2833002 	add	r3, r3, #2
80003e2c:	e35c002f 	cmp	r12, #47	; 0x2f
80003e30:	0afffff5 	beq	80003e0c <auto_mount+0xa8>
80003e34:	e3540001 	cmp	r4, #1
80003e38:	e5803000 	str	r3, [r0]
80003e3c:	8afffff6 	bhi	80003e1c <auto_mount+0xb8>
80003e40:	e1a0c004 	mov	r12, r4
80003e44:	eaffffdb 	b	80003db8 <auto_mount+0x54>
80003e48:	e3a01000 	mov	r1, #0
80003e4c:	e3a02d09 	mov	r2, #576	; 0x240
80003e50:	e1a00006 	mov	r0, r6
80003e54:	ebfff4d6 	bl	800011b4 <memset>
80003e58:	e5c64027 	strb	r4, [r6, #39]	; 0x27
80003e5c:	e1a00004 	mov	r0, r4
80003e60:	ebfffe06 	bl	80003680 <disk_initialize>
80003e64:	e3100001 	tst	r0, #1
80003e68:	1a000011 	bne	80003eb4 <auto_mount+0x150>
80003e6c:	e3550000 	cmp	r5, #0
80003e70:	0a000005 	beq	80003e8c <auto_mount+0x128>
80003e74:	e3100004 	tst	r0, #4
80003e78:	0a000003 	beq	80003e8c <auto_mount+0x128>
80003e7c:	e3a00009 	mov	r0, #9
80003e80:	e8bd81f0 	pop	{r4, r5, r6, r7, r8, r15}
80003e84:	e3a0000a 	mov	r0, #10
80003e88:	e8bd81f0 	pop	{r4, r5, r6, r7, r8, r15}
80003e8c:	e1a00006 	mov	r0, r6
80003e90:	e3a01000 	mov	r1, #0
80003e94:	ebffff8e 	bl	80003cd4 <check_fs>
80003e98:	e3500001 	cmp	r0, #1
80003e9c:	13a04000 	movne	r4, #0
80003ea0:	0a000057 	beq	80004004 <auto_mount+0x2a0>
80003ea4:	e3500000 	cmp	r0, #0
80003ea8:	0a000005 	beq	80003ec4 <auto_mount+0x160>
80003eac:	e3a0000b 	mov	r0, #11
80003eb0:	e8bd81f0 	pop	{r4, r5, r6, r7, r8, r15}
80003eb4:	e3a00001 	mov	r0, #1
80003eb8:	e8bd81f0 	pop	{r4, r5, r6, r7, r8, r15}
80003ebc:	e1a00005 	mov	r0, r5
80003ec0:	e8bd81f0 	pop	{r4, r5, r6, r7, r8, r15}
80003ec4:	e5d6204c 	ldrb	r2, [r6, #76]	; 0x4c
80003ec8:	e5d6304b 	ldrb	r3, [r6, #75]	; 0x4b
80003ecc:	e1833402 	orr	r3, r3, r2, lsl #8
80003ed0:	e3530c02 	cmp	r3, #512	; 0x200
80003ed4:	1afffff4 	bne	80003eac <auto_mount+0x148>
80003ed8:	e5d68057 	ldrb	r8, [r6, #87]	; 0x57
80003edc:	e5d63056 	ldrb	r3, [r6, #86]	; 0x56
80003ee0:	e1938408 	orrs	r8, r3, r8, lsl #8
80003ee4:	1a000007 	bne	80003f08 <auto_mount+0x1a4>
80003ee8:	e5d63066 	ldrb	r3, [r6, #102]	; 0x66
80003eec:	e5d61067 	ldrb	r1, [r6, #103]	; 0x67
80003ef0:	e5d62064 	ldrb	r2, [r6, #100]	; 0x64
80003ef4:	e1a03803 	lsl	r3, r3, #16
80003ef8:	e5d68065 	ldrb	r8, [r6, #101]	; 0x65
80003efc:	e1833c01 	orr	r3, r3, r1, lsl #24
80003f00:	e1833002 	orr	r3, r3, r2
80003f04:	e1838408 	orr	r8, r3, r8, lsl #8
80003f08:	e5d61054 	ldrb	r1, [r6, #84]	; 0x54
80003f0c:	e5d6c04f 	ldrb	r12, [r6, #79]	; 0x4f
80003f10:	e5d62053 	ldrb	r2, [r6, #83]	; 0x53
80003f14:	e5d6004e 	ldrb	r0, [r6, #78]	; 0x4e
80003f18:	e1923401 	orrs	r3, r2, r1, lsl #8
80003f1c:	e5d65052 	ldrb	r5, [r6, #82]	; 0x52
80003f20:	e5d62050 	ldrb	r2, [r6, #80]	; 0x50
80003f24:	e180040c 	orr	r0, r0, r12, lsl #8
80003f28:	e5d6104d 	ldrb	r1, [r6, #77]	; 0x4d
80003f2c:	e0844000 	add	r4, r4, r0
80003f30:	e5d6c051 	ldrb	r12, [r6, #81]	; 0x51
80003f34:	e5868008 	str	r8, [r6, #8]
80003f38:	e18c5405 	orr	r5, r12, r5, lsl #8
80003f3c:	e5864010 	str	r4, [r6, #16]
80003f40:	e5c62026 	strb	r2, [r6, #38]	; 0x26
80003f44:	e1c650b2 	strh	r5, [r6, #2]
80003f48:	e0080892 	mul	r8, r2, r8
80003f4c:	e5c61025 	strb	r1, [r6, #37]	; 0x25
80003f50:	1a000007 	bne	80003f74 <auto_mount+0x210>
80003f54:	e5d62062 	ldrb	r2, [r6, #98]	; 0x62
80003f58:	e5d6e063 	ldrb	r14, [r6, #99]	; 0x63
80003f5c:	e5d6c060 	ldrb	r12, [r6, #96]	; 0x60
80003f60:	e1a02802 	lsl	r2, r2, #16
80003f64:	e5d63061 	ldrb	r3, [r6, #97]	; 0x61
80003f68:	e1822c0e 	orr	r2, r2, r14, lsl #24
80003f6c:	e182200c 	orr	r2, r2, r12
80003f70:	e1823403 	orr	r3, r2, r3, lsl #8
80003f74:	e0603003 	rsb	r3, r0, r3
80003f78:	e1a05225 	lsr	r5, r5, #4
80003f7c:	e0680003 	rsb	r0, r8, r3
80003f80:	e0650000 	rsb	r0, r5, r0
80003f84:	ebfff538 	bl	8000146c <__aeabi_uidiv>
80003f88:	e3003ff7 	movw	r3, #4087	; 0xff7
80003f8c:	e2800002 	add	r0, r0, #2
80003f90:	e586000c 	str	r0, [r6, #12]
80003f94:	e1500003 	cmp	r0, r3
80003f98:	9a000028 	bls	80004040 <auto_mount+0x2dc>
80003f9c:	e30f3ff7 	movw	r3, #65527	; 0xfff7
80003fa0:	e1500003 	cmp	r0, r3
80003fa4:	9a00002a 	bls	80004054 <auto_mount+0x2f0>
80003fa8:	e5d6106e 	ldrb	r1, [r6, #110]	; 0x6e
80003fac:	e3a0c003 	mov	r12, #3
80003fb0:	e5d6306f 	ldrb	r3, [r6, #111]	; 0x6f
80003fb4:	e5d6206c 	ldrb	r2, [r6, #108]	; 0x6c
80003fb8:	e1a01801 	lsl	r1, r1, #16
80003fbc:	e5d6006d 	ldrb	r0, [r6, #109]	; 0x6d
80003fc0:	e1813c03 	orr	r3, r1, r3, lsl #24
80003fc4:	e5c6c024 	strb	r12, [r6, #36]	; 0x24
80003fc8:	e1833002 	orr	r3, r3, r2
80003fcc:	e1833400 	orr	r3, r3, r0, lsl #8
80003fd0:	e5863014 	str	r3, [r6, #20]
80003fd4:	e1d730b8 	ldrh	r3, [r7, #8]
80003fd8:	e0844005 	add	r4, r4, r5
80003fdc:	e0848008 	add	r8, r4, r8
80003fe0:	e3e02000 	mvn	r2, #0
80003fe4:	e2833001 	add	r3, r3, #1
80003fe8:	e5868018 	str	r8, [r6, #24]
80003fec:	e5862020 	str	r2, [r6, #32]
80003ff0:	e3a00000 	mov	r0, #0
80003ff4:	e6ff3073 	uxth	r3, r3
80003ff8:	e1c730b8 	strh	r3, [r7, #8]
80003ffc:	e1c630b0 	strh	r3, [r6]
80004000:	e8bd81f0 	pop	{r4, r5, r6, r7, r8, r15}
80004004:	e5d63202 	ldrb	r3, [r6, #514]	; 0x202
80004008:	e3530000 	cmp	r3, #0
8000400c:	0affffa6 	beq	80003eac <auto_mount+0x148>
80004010:	e5d63208 	ldrb	r3, [r6, #520]	; 0x208
80004014:	e1a00006 	mov	r0, r6
80004018:	e5d61209 	ldrb	r1, [r6, #521]	; 0x209
8000401c:	e5d62206 	ldrb	r2, [r6, #518]	; 0x206
80004020:	e5d64207 	ldrb	r4, [r6, #519]	; 0x207
80004024:	e1a03803 	lsl	r3, r3, #16
80004028:	e1833c01 	orr	r3, r3, r1, lsl #24
8000402c:	e1833002 	orr	r3, r3, r2
80004030:	e1834404 	orr	r4, r3, r4, lsl #8
80004034:	e1a01004 	mov	r1, r4
80004038:	ebffff25 	bl	80003cd4 <check_fs>
8000403c:	eaffff98 	b	80003ea4 <auto_mount+0x140>
80004040:	e3a03001 	mov	r3, #1
80004044:	e5c63024 	strb	r3, [r6, #36]	; 0x24
80004048:	e0883004 	add	r3, r8, r4
8000404c:	e5863014 	str	r3, [r6, #20]
80004050:	eaffffdf 	b	80003fd4 <auto_mount+0x270>
80004054:	e3a03002 	mov	r3, #2
80004058:	e5c63024 	strb	r3, [r6, #36]	; 0x24
8000405c:	eafffff9 	b	80004048 <auto_mount+0x2e4>

80004060 <get_cluster.part.2>:
80004060:	e92d41f0 	push	{r4, r5, r6, r7, r8, r14}
80004064:	e1a04000 	mov	r4, r0
80004068:	e5d03024 	ldrb	r3, [r0, #36]	; 0x24
8000406c:	e1a06001 	mov	r6, r1
80004070:	e5907010 	ldr	r7, [r0, #16]
80004074:	e3530002 	cmp	r3, #2
80004078:	0a000030 	beq	80004140 <get_cluster.part.2+0xe0>
8000407c:	e3530003 	cmp	r3, #3
80004080:	0a00001d 	beq	800040fc <get_cluster.part.2+0x9c>
80004084:	e3530001 	cmp	r3, #1
80004088:	0a000001 	beq	80004094 <get_cluster.part.2+0x34>
8000408c:	e3a00001 	mov	r0, #1
80004090:	e8bd81f0 	pop	{r4, r5, r6, r7, r8, r15}
80004094:	e6ff3071 	uxth	r3, r1
80004098:	e0833083 	add	r3, r3, r3, lsl #1
8000409c:	e1a050c3 	asr	r5, r3, #1
800040a0:	e6ff8075 	uxth	r8, r5
800040a4:	e08714a8 	add	r1, r7, r8, lsr #9
800040a8:	ebfffe73 	bl	80003a7c <move_window>
800040ac:	e3500000 	cmp	r0, #0
800040b0:	0afffff5 	beq	8000408c <get_cluster.part.2+0x2c>
800040b4:	e2888001 	add	r8, r8, #1
800040b8:	e7e85055 	ubfx	r5, r5, #0, #9
800040bc:	e0845005 	add	r5, r4, r5
800040c0:	e1a00004 	mov	r0, r4
800040c4:	e6ff8078 	uxth	r8, r8
800040c8:	e5d55040 	ldrb	r5, [r5, #64]	; 0x40
800040cc:	e08714a8 	add	r1, r7, r8, lsr #9
800040d0:	ebfffe69 	bl	80003a7c <move_window>
800040d4:	e3500000 	cmp	r0, #0
800040d8:	0affffeb 	beq	8000408c <get_cluster.part.2+0x2c>
800040dc:	e7e88058 	ubfx	r8, r8, #0, #9
800040e0:	e3160001 	tst	r6, #1
800040e4:	e0844008 	add	r4, r4, r8
800040e8:	e5d40040 	ldrb	r0, [r4, #64]	; 0x40
800040ec:	e1850400 	orr	r0, r5, r0, lsl #8
800040f0:	11a00220 	lsrne	r0, r0, #4
800040f4:	07eb0050 	ubfxeq	r0, r0, #0, #12
800040f8:	e8bd81f0 	pop	{r4, r5, r6, r7, r8, r15}
800040fc:	e08713a1 	add	r1, r7, r1, lsr #7
80004100:	ebfffe5d 	bl	80003a7c <move_window>
80004104:	e3500000 	cmp	r0, #0
80004108:	0affffdf 	beq	8000408c <get_cluster.part.2+0x2c>
8000410c:	e1a06106 	lsl	r6, r6, #2
80004110:	e2066f7f 	and	r6, r6, #508	; 0x1fc
80004114:	e0844006 	add	r4, r4, r6
80004118:	e5d43042 	ldrb	r3, [r4, #66]	; 0x42
8000411c:	e5d41043 	ldrb	r1, [r4, #67]	; 0x43
80004120:	e5d42040 	ldrb	r2, [r4, #64]	; 0x40
80004124:	e5d40041 	ldrb	r0, [r4, #65]	; 0x41
80004128:	e1a03803 	lsl	r3, r3, #16
8000412c:	e1833c01 	orr	r3, r3, r1, lsl #24
80004130:	e1833002 	orr	r3, r3, r2
80004134:	e1830400 	orr	r0, r3, r0, lsl #8
80004138:	e3c0020f 	bic	r0, r0, #-268435456	; 0xf0000000
8000413c:	e8bd81f0 	pop	{r4, r5, r6, r7, r8, r15}
80004140:	e0871421 	add	r1, r7, r1, lsr #8
80004144:	ebfffe4c 	bl	80003a7c <move_window>
80004148:	e3500000 	cmp	r0, #0
8000414c:	0affffce 	beq	8000408c <get_cluster.part.2+0x2c>
80004150:	e1a06086 	lsl	r6, r6, #1
80004154:	e30031fe 	movw	r3, #510	; 0x1fe
80004158:	e0033006 	and	r3, r3, r6
8000415c:	e0844003 	add	r4, r4, r3
80004160:	e5d40041 	ldrb	r0, [r4, #65]	; 0x41
80004164:	e5d43040 	ldrb	r3, [r4, #64]	; 0x40
80004168:	e1830400 	orr	r0, r3, r0, lsl #8
8000416c:	e8bd81f0 	pop	{r4, r5, r6, r7, r8, r15}

80004170 <next_dir_entry>:
80004170:	e92d40f8 	push	{r3, r4, r5, r6, r7, r14}
80004174:	e1a05000 	mov	r5, r0
80004178:	e1d040b2 	ldrh	r4, [r0, #2]
8000417c:	e5906004 	ldr	r6, [r0, #4]
80004180:	e2844001 	add	r4, r4, #1
80004184:	e6ff4074 	uxth	r4, r4
80004188:	e314000f 	tst	r4, #15
8000418c:	1a000008 	bne	800041b4 <next_dir_entry+0x44>
80004190:	e590100c 	ldr	r1, [r0, #12]
80004194:	e5903010 	ldr	r3, [r0, #16]
80004198:	e3510000 	cmp	r1, #0
8000419c:	e2833001 	add	r3, r3, #1
800041a0:	e5803010 	str	r3, [r0, #16]
800041a4:	1a000005 	bne	800041c0 <next_dir_entry+0x50>
800041a8:	e1d630b2 	ldrh	r3, [r6, #2]
800041ac:	e1530004 	cmp	r3, r4
800041b0:	9a00000b 	bls	800041e4 <next_dir_entry+0x74>
800041b4:	e3a00001 	mov	r0, #1
800041b8:	e1c540b2 	strh	r4, [r5, #2]
800041bc:	e8bd80f8 	pop	{r3, r4, r5, r6, r7, r15}
800041c0:	e5d63025 	ldrb	r3, [r6, #37]	; 0x25
800041c4:	e2433001 	sub	r3, r3, #1
800041c8:	e0137224 	ands	r7, r3, r4, lsr #4
800041cc:	1afffff8 	bne	800041b4 <next_dir_entry+0x44>
800041d0:	e3510001 	cmp	r1, #1
800041d4:	9a000002 	bls	800041e4 <next_dir_entry+0x74>
800041d8:	e596300c 	ldr	r3, [r6, #12]
800041dc:	e1510003 	cmp	r1, r3
800041e0:	3a000001 	bcc	800041ec <next_dir_entry+0x7c>
800041e4:	e3a00000 	mov	r0, #0
800041e8:	e8bd80f8 	pop	{r3, r4, r5, r6, r7, r15}
800041ec:	e1a00006 	mov	r0, r6
800041f0:	ebffff9a 	bl	80004060 <get_cluster.part.2>
800041f4:	e3500001 	cmp	r0, #1
800041f8:	9afffff9 	bls	800041e4 <next_dir_entry+0x74>
800041fc:	e596300c 	ldr	r3, [r6, #12]
80004200:	e1530000 	cmp	r3, r0
80004204:	9afffff6 	bls	800041e4 <next_dir_entry+0x74>
80004208:	e2433002 	sub	r3, r3, #2
8000420c:	e2401002 	sub	r1, r0, #2
80004210:	e1510003 	cmp	r1, r3
80004214:	e585000c 	str	r0, [r5, #12]
80004218:	35963018 	ldrcc	r3, [r6, #24]
8000421c:	21a03007 	movcs	r3, r7
80004220:	35d62025 	ldrbcc	r2, [r6, #37]	; 0x25
80004224:	30233192 	mlacc	r3, r2, r1, r3
80004228:	e5853010 	str	r3, [r5, #16]
8000422c:	eaffffe0 	b	800041b4 <next_dir_entry+0x44>

80004230 <trace_path>:
80004230:	e92d4ff8 	push	{r3, r4, r5, r6, r7, r8, r9, r10, r11, r14}
80004234:	e1a09002 	mov	r9, r2
80004238:	e5907004 	ldr	r7, [r0, #4]
8000423c:	e1a0a003 	mov	r10, r3
80004240:	e1a06000 	mov	r6, r0
80004244:	e1a08001 	mov	r8, r1
80004248:	e5d72024 	ldrb	r2, [r7, #36]	; 0x24
8000424c:	e5973014 	ldr	r3, [r7, #20]
80004250:	e3520003 	cmp	r2, #3
80004254:	0a000079 	beq	80004440 <trace_path+0x210>
80004258:	e5803010 	str	r3, [r0, #16]
8000425c:	e3a03000 	mov	r3, #0
80004260:	e5803008 	str	r3, [r0, #8]
80004264:	e580300c 	str	r3, [r0, #12]
80004268:	e3a03000 	mov	r3, #0
8000426c:	e1c630b2 	strh	r3, [r6, #2]
80004270:	e5d90000 	ldrb	r0, [r9]
80004274:	e1500003 	cmp	r0, r3
80004278:	0a00006e 	beq	80004438 <trace_path+0x208>
8000427c:	e1a00008 	mov	r0, r8
80004280:	e3a01020 	mov	r1, #32
80004284:	e3a0200b 	mov	r2, #11
80004288:	ebfff3c9 	bl	800011b4 <memset>
8000428c:	e3a00000 	mov	r0, #0
80004290:	e1a03000 	mov	r3, r0
80004294:	e3a0e018 	mov	r14, #24
80004298:	e3a0c008 	mov	r12, #8
8000429c:	e4d95001 	ldrb	r5, [r9], #1
800042a0:	e3550000 	cmp	r5, #0
800042a4:	1355002f 	cmpne	r5, #47	; 0x2f
800042a8:	0a000018 	beq	80004310 <trace_path+0xe0>
800042ac:	e355007f 	cmp	r5, #127	; 0x7f
800042b0:	13550020 	cmpne	r5, #32
800042b4:	9a00005d 	bls	80004430 <trace_path+0x200>
800042b8:	e355002e 	cmp	r5, #46	; 0x2e
800042bc:	0a000054 	beq	80004414 <trace_path+0x1e4>
800042c0:	e2851020 	add	r1, r5, #32
800042c4:	e285207f 	add	r2, r5, #127	; 0x7f
800042c8:	e6ef1071 	uxtb	r1, r1
800042cc:	e6ef2072 	uxtb	r2, r2
800042d0:	e352001e 	cmp	r2, #30
800042d4:	8351001c 	cmphi	r1, #28
800042d8:	8a000032 	bhi	800043a8 <trace_path+0x178>
800042dc:	e3530000 	cmp	r3, #0
800042e0:	035500e5 	cmpeq	r5, #229	; 0xe5
800042e4:	e2200001 	eor	r0, r0, #1
800042e8:	03a05005 	moveq	r5, #5
800042ec:	e153000c 	cmp	r3, r12
800042f0:	2a00004e 	bcs	80004430 <trace_path+0x200>
800042f4:	e7c85003 	strb	r5, [r8, r3]
800042f8:	e2832001 	add	r2, r3, #1
800042fc:	e4d95001 	ldrb	r5, [r9], #1
80004300:	e6ef3072 	uxtb	r3, r2
80004304:	e3550000 	cmp	r5, #0
80004308:	1355002f 	cmpne	r5, #47	; 0x2f
8000430c:	1affffe6 	bne	800042ac <trace_path+0x7c>
80004310:	e3530000 	cmp	r3, #0
80004314:	0a000045 	beq	80004430 <trace_path+0x200>
80004318:	e3550001 	cmp	r5, #1
8000431c:	e000000e 	and	r0, r0, r14
80004320:	e5c8000b 	strb	r0, [r8, #11]
80004324:	1a000016 	bne	80004384 <trace_path+0x154>
80004328:	ea000040 	b	80004430 <trace_path+0x200>
8000432c:	e1d6c0b2 	ldrh	r12, [r6, #2]
80004330:	e20cc00f 	and	r12, r12, #15
80004334:	e1a0c28c 	lsl	r12, r12, #5
80004338:	e087300c 	add	r3, r7, r12
8000433c:	e28cc040 	add	r12, r12, #64	; 0x40
80004340:	e087400c 	add	r4, r7, r12
80004344:	e5d33040 	ldrb	r3, [r3, #64]	; 0x40
80004348:	e1a00004 	mov	r0, r4
8000434c:	e3530000 	cmp	r3, #0
80004350:	0a000050 	beq	80004498 <trace_path+0x268>
80004354:	e35300e5 	cmp	r3, #229	; 0xe5
80004358:	0a000005 	beq	80004374 <trace_path+0x144>
8000435c:	e5d4b00b 	ldrb	r11, [r4, #11]
80004360:	e31b0008 	tst	r11, #8
80004364:	1a000002 	bne	80004374 <trace_path+0x144>
80004368:	ebfff371 	bl	80001134 <memcmp>
8000436c:	e3500000 	cmp	r0, #0
80004370:	0a00004e 	beq	800044b0 <trace_path+0x280>
80004374:	e1a00006 	mov	r0, r6
80004378:	ebffff7c 	bl	80004170 <next_dir_entry>
8000437c:	e3500000 	cmp	r0, #0
80004380:	0a000044 	beq	80004498 <trace_path+0x268>
80004384:	e5961010 	ldr	r1, [r6, #16]
80004388:	e1a00007 	mov	r0, r7
8000438c:	ebfffdba 	bl	80003a7c <move_window>
80004390:	e1a01008 	mov	r1, r8
80004394:	e3a0200b 	mov	r2, #11
80004398:	e3500000 	cmp	r0, #0
8000439c:	1affffe2 	bne	8000432c <trace_path+0xfc>
800043a0:	e3a00008 	mov	r0, #8
800043a4:	e8bd8ff8 	pop	{r3, r4, r5, r6, r7, r8, r9, r10, r11, r15}
800043a8:	e3550022 	cmp	r5, #34	; 0x22
800043ac:	0a00001f 	beq	80004430 <trace_path+0x200>
800043b0:	e3550029 	cmp	r5, #41	; 0x29
800043b4:	9a000014 	bls	8000440c <trace_path+0x1dc>
800043b8:	e355002c 	cmp	r5, #44	; 0x2c
800043bc:	9a00001b 	bls	80004430 <trace_path+0x200>
800043c0:	e3550039 	cmp	r5, #57	; 0x39
800043c4:	9a000010 	bls	8000440c <trace_path+0x1dc>
800043c8:	e355003f 	cmp	r5, #63	; 0x3f
800043cc:	9a000017 	bls	80004430 <trace_path+0x200>
800043d0:	e3100001 	tst	r0, #1
800043d4:	1a00000c 	bne	8000440c <trace_path+0x1dc>
800043d8:	e355007c 	cmp	r5, #124	; 0x7c
800043dc:	0a000013 	beq	80004430 <trace_path+0x200>
800043e0:	e245205b 	sub	r2, r5, #91	; 0x5b
800043e4:	e6ef2072 	uxtb	r2, r2
800043e8:	e3520002 	cmp	r2, #2
800043ec:	9a00000f 	bls	80004430 <trace_path+0x200>
800043f0:	e2452041 	sub	r2, r5, #65	; 0x41
800043f4:	e6ef2072 	uxtb	r2, r2
800043f8:	e3520019 	cmp	r2, #25
800043fc:	8a00001b 	bhi	80004470 <trace_path+0x240>
80004400:	e35c0008 	cmp	r12, #8
80004404:	020ee0f7 	andeq	r14, r14, #247	; 0xf7
80004408:	120ee0ef 	andne	r14, r14, #239	; 0xef
8000440c:	e20000fe 	and	r0, r0, #254	; 0xfe
80004410:	eaffffb5 	b	800042ec <trace_path+0xbc>
80004414:	e3100001 	tst	r0, #1
80004418:	1a000004 	bne	80004430 <trace_path+0x200>
8000441c:	e2433001 	sub	r3, r3, #1
80004420:	e3530007 	cmp	r3, #7
80004424:	93a0c00b 	movls	r12, #11
80004428:	93a03008 	movls	r3, #8
8000442c:	9affff9a 	bls	8000429c <trace_path+0x6c>
80004430:	e3a00004 	mov	r0, #4
80004434:	e8bd8ff8 	pop	{r3, r4, r5, r6, r7, r8, r9, r10, r11, r15}
80004438:	e58a0000 	str	r0, [r10]
8000443c:	e8bd8ff8 	pop	{r3, r4, r5, r6, r7, r8, r9, r10, r11, r15}
80004440:	e597200c 	ldr	r2, [r7, #12]
80004444:	e2431002 	sub	r1, r3, #2
80004448:	e5803008 	str	r3, [r0, #8]
8000444c:	e2422002 	sub	r2, r2, #2
80004450:	e580300c 	str	r3, [r0, #12]
80004454:	e1510002 	cmp	r1, r2
80004458:	35d72025 	ldrbcc	r2, [r7, #37]	; 0x25
8000445c:	23a03000 	movcs	r3, #0
80004460:	35973018 	ldrcc	r3, [r7, #24]
80004464:	30233291 	mlacc	r3, r1, r2, r3
80004468:	e5803010 	str	r3, [r0, #16]
8000446c:	eaffff7d 	b	80004268 <trace_path+0x38>
80004470:	e2452061 	sub	r2, r5, #97	; 0x61
80004474:	e6ef2072 	uxtb	r2, r2
80004478:	e3520019 	cmp	r2, #25
8000447c:	8affffe2 	bhi	8000440c <trace_path+0x1dc>
80004480:	e2455020 	sub	r5, r5, #32
80004484:	e35c0008 	cmp	r12, #8
80004488:	03800008 	orreq	r0, r0, #8
8000448c:	13800010 	orrne	r0, r0, #16
80004490:	e6ef5075 	uxtb	r5, r5
80004494:	eaffffdc 	b	8000440c <trace_path+0x1dc>
80004498:	e3550000 	cmp	r5, #0
8000449c:	0a000001 	beq	800044a8 <trace_path+0x278>
800044a0:	e3a00003 	mov	r0, #3
800044a4:	e8bd8ff8 	pop	{r3, r4, r5, r6, r7, r8, r9, r10, r11, r15}
800044a8:	e3a00002 	mov	r0, #2
800044ac:	e8bd8ff8 	pop	{r3, r4, r5, r6, r7, r8, r9, r10, r11, r15}
800044b0:	e3550000 	cmp	r5, #0
800044b4:	0a000015 	beq	80004510 <trace_path+0x2e0>
800044b8:	e31b0010 	tst	r11, #16
800044bc:	0afffff7 	beq	800044a0 <trace_path+0x270>
800044c0:	e5d4c015 	ldrb	r12, [r4, #21]
800044c4:	e5d41014 	ldrb	r1, [r4, #20]
800044c8:	e5d4301b 	ldrb	r3, [r4, #27]
800044cc:	e5d4201a 	ldrb	r2, [r4, #26]
800044d0:	e181c40c 	orr	r12, r1, r12, lsl #8
800044d4:	e597100c 	ldr	r1, [r7, #12]
800044d8:	e1823403 	orr	r3, r2, r3, lsl #8
800044dc:	e183380c 	orr	r3, r3, r12, lsl #16
800044e0:	e2412002 	sub	r2, r1, #2
800044e4:	e2431002 	sub	r1, r3, #2
800044e8:	e5863008 	str	r3, [r6, #8]
800044ec:	e1510002 	cmp	r1, r2
800044f0:	e586300c 	str	r3, [r6, #12]
800044f4:	35970018 	ldrcc	r0, [r7, #24]
800044f8:	35d73025 	ldrbcc	r3, [r7, #37]	; 0x25
800044fc:	30200193 	mlacc	r0, r3, r1, r0
80004500:	e3a03002 	mov	r3, #2
80004504:	e1c630b2 	strh	r3, [r6, #2]
80004508:	e5860010 	str	r0, [r6, #16]
8000450c:	eaffff5a 	b	8000427c <trace_path+0x4c>
80004510:	e58a4000 	str	r4, [r10]
80004514:	e1a00005 	mov	r0, r5
80004518:	e8bd8ff8 	pop	{r3, r4, r5, r6, r7, r8, r9, r10, r11, r15}

8000451c <create_chain>:
8000451c:	e92d41f0 	push	{r4, r5, r6, r7, r8, r14}
80004520:	e2518000 	subs	r8, r1, #0
80004524:	e1a05000 	mov	r5, r0
80004528:	e590700c 	ldr	r7, [r0, #12]
8000452c:	0a000004 	beq	80004544 <create_chain+0x28>
80004530:	e3580001 	cmp	r8, #1
80004534:	81570008 	cmphi	r7, r8
80004538:	8a00002e 	bhi	800045f8 <create_chain+0xdc>
8000453c:	e3a00001 	mov	r0, #1
80004540:	e8bd81f0 	pop	{r4, r5, r6, r7, r8, r15}
80004544:	e590601c 	ldr	r6, [r0, #28]
80004548:	e3560000 	cmp	r6, #0
8000454c:	11560007 	cmpne	r6, r7
80004550:	23a06001 	movcs	r6, #1
80004554:	e1a04006 	mov	r4, r6
80004558:	ea00000d 	b	80004594 <create_chain+0x78>
8000455c:	e3560001 	cmp	r6, #1
80004560:	e3a04002 	mov	r4, #2
80004564:	9a000012 	bls	800045b4 <create_chain+0x98>
80004568:	e595300c 	ldr	r3, [r5, #12]
8000456c:	e1a01004 	mov	r1, r4
80004570:	e1530004 	cmp	r3, r4
80004574:	9afffff0 	bls	8000453c <create_chain+0x20>
80004578:	ebfffeb8 	bl	80004060 <get_cluster.part.2>
8000457c:	e3500000 	cmp	r0, #0
80004580:	0a00000d 	beq	800045bc <create_chain+0xa0>
80004584:	e3500001 	cmp	r0, #1
80004588:	0affffeb 	beq	8000453c <create_chain+0x20>
8000458c:	e1560004 	cmp	r6, r4
80004590:	0a000007 	beq	800045b4 <create_chain+0x98>
80004594:	e2844001 	add	r4, r4, #1
80004598:	e1a00005 	mov	r0, r5
8000459c:	e1570004 	cmp	r7, r4
800045a0:	9affffed 	bls	8000455c <create_chain+0x40>
800045a4:	e3540001 	cmp	r4, #1
800045a8:	8affffee 	bhi	80004568 <create_chain+0x4c>
800045ac:	e3a00001 	mov	r0, #1
800045b0:	e8bd81f0 	pop	{r4, r5, r6, r7, r8, r15}
800045b4:	e3a00000 	mov	r0, #0
800045b8:	e8bd81f0 	pop	{r4, r5, r6, r7, r8, r15}
800045bc:	e1a00005 	mov	r0, r5
800045c0:	e1a01004 	mov	r1, r4
800045c4:	e3e0220f 	mvn	r2, #-268435456	; 0xf0000000
800045c8:	ebfffd62 	bl	80003b58 <put_cluster>
800045cc:	e3500000 	cmp	r0, #0
800045d0:	0affffd9 	beq	8000453c <create_chain+0x20>
800045d4:	e3580000 	cmp	r8, #0
800045d8:	1a00000d 	bne	80004614 <create_chain+0xf8>
800045dc:	e5953020 	ldr	r3, [r5, #32]
800045e0:	e1a00004 	mov	r0, r4
800045e4:	e585401c 	str	r4, [r5, #28]
800045e8:	e3730001 	cmn	r3, #1
800045ec:	12433001 	subne	r3, r3, #1
800045f0:	15853020 	strne	r3, [r5, #32]
800045f4:	e8bd81f0 	pop	{r4, r5, r6, r7, r8, r15}
800045f8:	ebfffe98 	bl	80004060 <get_cluster.part.2>
800045fc:	e3500001 	cmp	r0, #1
80004600:	9affffcd 	bls	8000453c <create_chain+0x20>
80004604:	e1570000 	cmp	r7, r0
80004608:	88bd81f0 	pophi	{r4, r5, r6, r7, r8, r15}
8000460c:	e1a06008 	mov	r6, r8
80004610:	eaffffcf 	b	80004554 <create_chain+0x38>
80004614:	e1a01008 	mov	r1, r8
80004618:	e1a00005 	mov	r0, r5
8000461c:	e1a02004 	mov	r2, r4
80004620:	ebfffd4c 	bl	80003b58 <put_cluster>
80004624:	e3500000 	cmp	r0, #0
80004628:	1affffeb 	bne	800045dc <create_chain+0xc0>
8000462c:	eaffffc2 	b	8000453c <create_chain+0x20>

80004630 <reserve_direntry>:
80004630:	e92d41f0 	push	{r4, r5, r6, r7, r8, r14}
80004634:	e1a04000 	mov	r4, r0
80004638:	e99000c0 	ldmib	r0, {r6, r7}
8000463c:	e1a05001 	mov	r5, r1
80004640:	e3570000 	cmp	r7, #0
80004644:	0a00001f 	beq	800046c8 <reserve_direntry+0x98>
80004648:	e596300c 	ldr	r3, [r6, #12]
8000464c:	e2472002 	sub	r2, r7, #2
80004650:	e580700c 	str	r7, [r0, #12]
80004654:	e2433002 	sub	r3, r3, #2
80004658:	e1520003 	cmp	r2, r3
8000465c:	35d63025 	ldrbcc	r3, [r6, #37]	; 0x25
80004660:	23a01000 	movcs	r1, #0
80004664:	35961018 	ldrcc	r1, [r6, #24]
80004668:	30211392 	mlacc	r1, r2, r3, r1
8000466c:	e3a03000 	mov	r3, #0
80004670:	e5841010 	str	r1, [r4, #16]
80004674:	e1c430b2 	strh	r3, [r4, #2]
80004678:	ea00000b 	b	800046ac <reserve_direntry+0x7c>
8000467c:	e1d430b2 	ldrh	r3, [r4, #2]
80004680:	e203300f 	and	r3, r3, #15
80004684:	e1a03283 	lsl	r3, r3, #5
80004688:	e0862003 	add	r2, r6, r3
8000468c:	e5d22040 	ldrb	r2, [r2, #64]	; 0x40
80004690:	e3520000 	cmp	r2, #0
80004694:	135200e5 	cmpne	r2, #229	; 0xe5
80004698:	0a00000c 	beq	800046d0 <reserve_direntry+0xa0>
8000469c:	ebfffeb3 	bl	80004170 <next_dir_entry>
800046a0:	e2508000 	subs	r8, r0, #0
800046a4:	0a00000e 	beq	800046e4 <reserve_direntry+0xb4>
800046a8:	e5941010 	ldr	r1, [r4, #16]
800046ac:	e1a00006 	mov	r0, r6
800046b0:	ebfffcf1 	bl	80003a7c <move_window>
800046b4:	e3500000 	cmp	r0, #0
800046b8:	e1a00004 	mov	r0, r4
800046bc:	1affffee 	bne	8000467c <reserve_direntry+0x4c>
800046c0:	e3a00008 	mov	r0, #8
800046c4:	e8bd81f0 	pop	{r4, r5, r6, r7, r8, r15}
800046c8:	e5961014 	ldr	r1, [r6, #20]
800046cc:	eaffffe6 	b	8000466c <reserve_direntry+0x3c>
800046d0:	e2833040 	add	r3, r3, #64	; 0x40
800046d4:	e3a00000 	mov	r0, #0
800046d8:	e0863003 	add	r3, r6, r3
800046dc:	e5853000 	str	r3, [r5]
800046e0:	e8bd81f0 	pop	{r4, r5, r6, r7, r8, r15}
800046e4:	e3570000 	cmp	r7, #0
800046e8:	1a000001 	bne	800046f4 <reserve_direntry+0xc4>
800046ec:	e3a00006 	mov	r0, #6
800046f0:	e8bd81f0 	pop	{r4, r5, r6, r7, r8, r15}
800046f4:	e594100c 	ldr	r1, [r4, #12]
800046f8:	e1a00006 	mov	r0, r6
800046fc:	ebffff86 	bl	8000451c <create_chain>
80004700:	e2504000 	subs	r4, r0, #0
80004704:	0afffff8 	beq	800046ec <reserve_direntry+0xbc>
80004708:	e3540001 	cmp	r4, #1
8000470c:	0affffeb 	beq	800046c0 <reserve_direntry+0x90>
80004710:	e1a00006 	mov	r0, r6
80004714:	e1a01008 	mov	r1, r8
80004718:	ebfffcd7 	bl	80003a7c <move_window>
8000471c:	e3500000 	cmp	r0, #0
80004720:	0affffe6 	beq	800046c0 <reserve_direntry+0x90>
80004724:	e596300c 	ldr	r3, [r6, #12]
80004728:	e2444002 	sub	r4, r4, #2
8000472c:	e2867040 	add	r7, r6, #64	; 0x40
80004730:	e3a01000 	mov	r1, #0
80004734:	e2433002 	sub	r3, r3, #2
80004738:	e3a02c02 	mov	r2, #512	; 0x200
8000473c:	e1540003 	cmp	r4, r3
80004740:	e1a00007 	mov	r0, r7
80004744:	35968018 	ldrcc	r8, [r6, #24]
80004748:	35d63025 	ldrbcc	r3, [r6, #37]	; 0x25
8000474c:	30288493 	mlacc	r8, r3, r4, r8
80004750:	e5868004 	str	r8, [r6, #4]
80004754:	ebfff296 	bl	800011b4 <memset>
80004758:	e5d63025 	ldrb	r3, [r6, #37]	; 0x25
8000475c:	e3530000 	cmp	r3, #0
80004760:	12434001 	subne	r4, r3, #1
80004764:	16ef4074 	uxtbne	r4, r4
80004768:	12844001 	addne	r4, r4, #1
8000476c:	10844008 	addne	r4, r4, r8
80004770:	1a000002 	bne	80004780 <reserve_direntry+0x150>
80004774:	ea00000a 	b	800047a4 <reserve_direntry+0x174>
80004778:	e1580004 	cmp	r8, r4
8000477c:	0a000008 	beq	800047a4 <reserve_direntry+0x174>
80004780:	e1a02008 	mov	r2, r8
80004784:	e5d60027 	ldrb	r0, [r6, #39]	; 0x27
80004788:	e1a01007 	mov	r1, r7
8000478c:	e3a03001 	mov	r3, #1
80004790:	ebfffc1e 	bl	80003810 <disk_write>
80004794:	e2888001 	add	r8, r8, #1
80004798:	e3500000 	cmp	r0, #0
8000479c:	0afffff5 	beq	80004778 <reserve_direntry+0x148>
800047a0:	eaffffc6 	b	800046c0 <reserve_direntry+0x90>
800047a4:	e3a03001 	mov	r3, #1
800047a8:	e3a00000 	mov	r0, #0
800047ac:	e5c63028 	strb	r3, [r6, #40]	; 0x28
800047b0:	e5857000 	str	r7, [r5]
800047b4:	e8bd81f0 	pop	{r4, r5, r6, r7, r8, r15}

800047b8 <sync>:
800047b8:	e92d4010 	push	{r4, r14}
800047bc:	e3a03001 	mov	r3, #1
800047c0:	e3a01000 	mov	r1, #0
800047c4:	e5c03028 	strb	r3, [r0, #40]	; 0x28
800047c8:	e1a04000 	mov	r4, r0
800047cc:	ebfffcaa 	bl	80003a7c <move_window>
800047d0:	e3500000 	cmp	r0, #0
800047d4:	1a000001 	bne	800047e0 <sync+0x28>
800047d8:	e3a00008 	mov	r0, #8
800047dc:	e8bd8010 	pop	{r4, r15}
800047e0:	e5d40027 	ldrb	r0, [r4, #39]	; 0x27
800047e4:	e3a01003 	mov	r1, #3
800047e8:	e3a02000 	mov	r2, #0
800047ec:	ebfffc28 	bl	80003894 <disk_ioctl>
800047f0:	e3500000 	cmp	r0, #0
800047f4:	1afffff7 	bne	800047d8 <sync+0x20>
800047f8:	e8bd8010 	pop	{r4, r15}

800047fc <remove_chain.constprop.4>:
800047fc:	e3510001 	cmp	r1, #1
80004800:	e92d4070 	push	{r4, r5, r6, r14}
80004804:	e1a05001 	mov	r5, r1
80004808:	9a00001c 	bls	80004880 <remove_chain.constprop.4+0x84>
8000480c:	e590300c 	ldr	r3, [r0, #12]
80004810:	e1a04000 	mov	r4, r0
80004814:	e1510003 	cmp	r1, r3
80004818:	3a000009 	bcc	80004844 <remove_chain.constprop.4+0x48>
8000481c:	ea000017 	b	80004880 <remove_chain.constprop.4+0x84>
80004820:	e5943020 	ldr	r3, [r4, #32]
80004824:	e3730001 	cmn	r3, #1
80004828:	e2833001 	add	r3, r3, #1
8000482c:	15843020 	strne	r3, [r4, #32]
80004830:	e3560001 	cmp	r6, #1
80004834:	9a000011 	bls	80004880 <remove_chain.constprop.4+0x84>
80004838:	e594300c 	ldr	r3, [r4, #12]
8000483c:	e1530006 	cmp	r3, r6
80004840:	9a00000e 	bls	80004880 <remove_chain.constprop.4+0x84>
80004844:	e1a01005 	mov	r1, r5
80004848:	e1a00004 	mov	r0, r4
8000484c:	ebfffe03 	bl	80004060 <get_cluster.part.2>
80004850:	e1a01005 	mov	r1, r5
80004854:	e3a02000 	mov	r2, #0
80004858:	e1a06000 	mov	r6, r0
8000485c:	e3560001 	cmp	r6, #1
80004860:	e1a00004 	mov	r0, r4
80004864:	e1a05006 	mov	r5, r6
80004868:	0a000002 	beq	80004878 <remove_chain.constprop.4+0x7c>
8000486c:	ebfffcb9 	bl	80003b58 <put_cluster>
80004870:	e3500000 	cmp	r0, #0
80004874:	1affffe9 	bne	80004820 <remove_chain.constprop.4+0x24>
80004878:	e3a00000 	mov	r0, #0
8000487c:	e8bd8070 	pop	{r4, r5, r6, r15}
80004880:	e3a00001 	mov	r0, #1
80004884:	e8bd8070 	pop	{r4, r5, r6, r15}

80004888 <f_mount>:
80004888:	e3500001 	cmp	r0, #1
8000488c:	9a000001 	bls	80004898 <f_mount+0x10>
80004890:	e3a00005 	mov	r0, #5
80004894:	e12fff1e 	bx	r14
80004898:	e30c2080 	movw	r2, #49280	; 0xc080
8000489c:	e1a03000 	mov	r3, r0
800048a0:	e3482000 	movt	r2, #32768	; 0x8000
800048a4:	e7920100 	ldr	r0, [r2, r0, lsl #2]
800048a8:	e92d4010 	push	{r4, r14}
800048ac:	e3500000 	cmp	r0, #0
800048b0:	e1a04001 	mov	r4, r1
800048b4:	e7821103 	str	r1, [r2, r3, lsl #2]
800048b8:	0a000002 	beq	800048c8 <f_mount+0x40>
800048bc:	e3a01000 	mov	r1, #0
800048c0:	e3a02d09 	mov	r2, #576	; 0x240
800048c4:	ebfff23a 	bl	800011b4 <memset>
800048c8:	e2540000 	subs	r0, r4, #0
800048cc:	0a000004 	beq	800048e4 <f_mount+0x5c>
800048d0:	e3a01000 	mov	r1, #0
800048d4:	e3a02d09 	mov	r2, #576	; 0x240
800048d8:	ebfff235 	bl	800011b4 <memset>
800048dc:	e3a00000 	mov	r0, #0
800048e0:	e8bd8010 	pop	{r4, r15}
800048e4:	e8bd8010 	pop	{r4, r15}

800048e8 <f_open>:
800048e8:	e92d40f0 	push	{r4, r5, r6, r7, r14}
800048ec:	e24dd034 	sub	r13, r13, #52	; 0x34
800048f0:	e1a05000 	mov	r5, r0
800048f4:	e28d0030 	add	r0, r13, #48	; 0x30
800048f8:	e3a0c000 	mov	r12, #0
800048fc:	e1a04002 	mov	r4, r2
80004900:	e520102c 	str	r1, [r0, #-44]!	; 0xffffffd4
80004904:	e202201e 	and	r2, r2, #30
80004908:	e585c004 	str	r12, [r5, #4]
8000490c:	e28d100c 	add	r1, r13, #12
80004910:	ebfffd13 	bl	80003d64 <auto_mount>
80004914:	e3500000 	cmp	r0, #0
80004918:	0a000001 	beq	80004924 <f_open+0x3c>
8000491c:	e28dd034 	add	r13, r13, #52	; 0x34
80004920:	e8bd80f0 	pop	{r4, r5, r6, r7, r15}
80004924:	e59dc00c 	ldr	r12, [r13, #12]
80004928:	e28d001c 	add	r0, r13, #28
8000492c:	e59d2004 	ldr	r2, [r13, #4]
80004930:	e28d1010 	add	r1, r13, #16
80004934:	e28d3008 	add	r3, r13, #8
80004938:	e204601f 	and	r6, r4, #31
8000493c:	e58dc020 	str	r12, [r13, #32]
80004940:	ebfffe3a 	bl	80004230 <trace_path>
80004944:	e314001c 	tst	r4, #28
80004948:	1a000009 	bne	80004974 <f_open+0x8c>
8000494c:	e3500000 	cmp	r0, #0
80004950:	1afffff1 	bne	8000491c <f_open+0x34>
80004954:	e59d3008 	ldr	r3, [r13, #8]
80004958:	e3530000 	cmp	r3, #0
8000495c:	0a000002 	beq	8000496c <f_open+0x84>
80004960:	e5d3200b 	ldrb	r2, [r3, #11]
80004964:	e3120010 	tst	r2, #16
80004968:	0a000042 	beq	80004a78 <f_open+0x190>
8000496c:	e3a00002 	mov	r0, #2
80004970:	eaffffe9 	b	8000491c <f_open+0x34>
80004974:	e3500000 	cmp	r0, #0
80004978:	0a000033 	beq	80004a4c <f_open+0x164>
8000497c:	e3500002 	cmp	r0, #2
80004980:	1affffe5 	bne	8000491c <f_open+0x34>
80004984:	e28d1008 	add	r1, r13, #8
80004988:	e28d001c 	add	r0, r13, #28
8000498c:	ebffff27 	bl	80004630 <reserve_direntry>
80004990:	e2501000 	subs	r1, r0, #0
80004994:	11a00001 	movne	r0, r1
80004998:	1affffdf 	bne	8000491c <f_open+0x34>
8000499c:	e3a02020 	mov	r2, #32
800049a0:	e59d0008 	ldr	r0, [r13, #8]
800049a4:	ebfff202 	bl	800011b4 <memset>
800049a8:	e3a0200b 	mov	r2, #11
800049ac:	e28d1010 	add	r1, r13, #16
800049b0:	e59d0008 	ldr	r0, [r13, #8]
800049b4:	ebfff1f5 	bl	80001190 <memcpy>
800049b8:	e59d3008 	ldr	r3, [r13, #8]
800049bc:	e5dd201b 	ldrb	r2, [r13, #27]
800049c0:	e3866008 	orr	r6, r6, #8
800049c4:	e5c3200c 	strb	r2, [r3, #12]
800049c8:	e3160008 	tst	r6, #8
800049cc:	1a00004a 	bne	80004afc <f_open+0x214>
800049d0:	e59dc00c 	ldr	r12, [r13, #12]
800049d4:	e59c2004 	ldr	r2, [r12, #4]
800049d8:	e3a07001 	mov	r7, #1
800049dc:	e5853020 	str	r3, [r5, #32]
800049e0:	e3a0e000 	mov	r14, #0
800049e4:	e5c56002 	strb	r6, [r5, #2]
800049e8:	e1a0000e 	mov	r0, r14
800049ec:	e585201c 	str	r2, [r5, #28]
800049f0:	e5d36015 	ldrb	r6, [r3, #21]
800049f4:	e5d34014 	ldrb	r4, [r3, #20]
800049f8:	e5d3201b 	ldrb	r2, [r3, #27]
800049fc:	e5d3101a 	ldrb	r1, [r3, #26]
80004a00:	e1844406 	orr	r4, r4, r6, lsl #8
80004a04:	e1812402 	orr	r2, r1, r2, lsl #8
80004a08:	e1822804 	orr	r2, r2, r4, lsl #16
80004a0c:	e5852010 	str	r2, [r5, #16]
80004a10:	e5d3101e 	ldrb	r1, [r3, #30]
80004a14:	e5d3601f 	ldrb	r6, [r3, #31]
80004a18:	e5d3201c 	ldrb	r2, [r3, #28]
80004a1c:	e1a01801 	lsl	r1, r1, #16
80004a20:	e5d3401d 	ldrb	r4, [r3, #29]
80004a24:	e1813c06 	orr	r3, r1, r6, lsl #24
80004a28:	e5c57003 	strb	r7, [r5, #3]
80004a2c:	e1dc10b0 	ldrh	r1, [r12]
80004a30:	e1833002 	orr	r3, r3, r2
80004a34:	e1833404 	orr	r3, r3, r4, lsl #8
80004a38:	e585c004 	str	r12, [r5, #4]
80004a3c:	e585300c 	str	r3, [r5, #12]
80004a40:	e1c510b0 	strh	r1, [r5]
80004a44:	e585e008 	str	r14, [r5, #8]
80004a48:	eaffffb3 	b	8000491c <f_open+0x34>
80004a4c:	e3140004 	tst	r4, #4
80004a50:	13a00007 	movne	r0, #7
80004a54:	1affffb0 	bne	8000491c <f_open+0x34>
80004a58:	e59d3008 	ldr	r3, [r13, #8]
80004a5c:	e3530000 	cmp	r3, #0
80004a60:	0a000002 	beq	80004a70 <f_open+0x188>
80004a64:	e5d3200b 	ldrb	r2, [r3, #11]
80004a68:	e2122011 	ands	r2, r2, #17
80004a6c:	0a000006 	beq	80004a8c <f_open+0x1a4>
80004a70:	e3a00006 	mov	r0, #6
80004a74:	eaffffa8 	b	8000491c <f_open+0x34>
80004a78:	e3140002 	tst	r4, #2
80004a7c:	0affffd3 	beq	800049d0 <f_open+0xe8>
80004a80:	e3120001 	tst	r2, #1
80004a84:	1afffff9 	bne	80004a70 <f_open+0x188>
80004a88:	eaffffd0 	b	800049d0 <f_open+0xe8>
80004a8c:	e3140008 	tst	r4, #8
80004a90:	0affffcc 	beq	800049c8 <f_open+0xe0>
80004a94:	e5d3c015 	ldrb	r12, [r3, #21]
80004a98:	e3a0e001 	mov	r14, #1
80004a9c:	e5d3401b 	ldrb	r4, [r3, #27]
80004aa0:	e5d30014 	ldrb	r0, [r3, #20]
80004aa4:	e5d3101a 	ldrb	r1, [r3, #26]
80004aa8:	e180040c 	orr	r0, r0, r12, lsl #8
80004aac:	e59dc00c 	ldr	r12, [r13, #12]
80004ab0:	e1811404 	orr	r1, r1, r4, lsl #8
80004ab4:	e5c3201c 	strb	r2, [r3, #28]
80004ab8:	e1814800 	orr	r4, r1, r0, lsl #16
80004abc:	e5c3201d 	strb	r2, [r3, #29]
80004ac0:	e5c3201e 	strb	r2, [r3, #30]
80004ac4:	e1a0000c 	mov	r0, r12
80004ac8:	e5c3201f 	strb	r2, [r3, #31]
80004acc:	e1a01004 	mov	r1, r4
80004ad0:	e5c32015 	strb	r2, [r3, #21]
80004ad4:	e5c32014 	strb	r2, [r3, #20]
80004ad8:	e5c3201b 	strb	r2, [r3, #27]
80004adc:	e5c3201a 	strb	r2, [r3, #26]
80004ae0:	e5cce028 	strb	r14, [r12, #40]	; 0x28
80004ae4:	e59c7004 	ldr	r7, [r12, #4]
80004ae8:	ebffff43 	bl	800047fc <remove_chain.constprop.4>
80004aec:	e3500000 	cmp	r0, #0
80004af0:	1a000015 	bne	80004b4c <f_open+0x264>
80004af4:	e3a00008 	mov	r0, #8
80004af8:	eaffff87 	b	8000491c <f_open+0x34>
80004afc:	e3a02020 	mov	r2, #32
80004b00:	e5c3200b 	strb	r2, [r3, #11]
80004b04:	ebfffb64 	bl	8000389c <get_fattime>
80004b08:	e59d3008 	ldr	r3, [r13, #8]
80004b0c:	e59dc00c 	ldr	r12, [r13, #12]
80004b10:	e3a04001 	mov	r4, #1
80004b14:	e6efe070 	uxtb	r14, r0
80004b18:	e7e71450 	ubfx	r1, r0, #8, #8
80004b1c:	e7e72850 	ubfx	r2, r0, #16, #8
80004b20:	e5c3e016 	strb	r14, [r3, #22]
80004b24:	e1a00c20 	lsr	r0, r0, #24
80004b28:	e5c3e00e 	strb	r14, [r3, #14]
80004b2c:	e5c31017 	strb	r1, [r3, #23]
80004b30:	e5c3100f 	strb	r1, [r3, #15]
80004b34:	e5c32018 	strb	r2, [r3, #24]
80004b38:	e5c32010 	strb	r2, [r3, #16]
80004b3c:	e5c30019 	strb	r0, [r3, #25]
80004b40:	e5c30011 	strb	r0, [r3, #17]
80004b44:	e5cc4028 	strb	r4, [r12, #40]	; 0x28
80004b48:	eaffffa1 	b	800049d4 <f_open+0xec>
80004b4c:	e1a01007 	mov	r1, r7
80004b50:	e59d000c 	ldr	r0, [r13, #12]
80004b54:	ebfffbc8 	bl	80003a7c <move_window>
80004b58:	e3500000 	cmp	r0, #0
80004b5c:	0affffe4 	beq	80004af4 <f_open+0x20c>
80004b60:	e59d200c 	ldr	r2, [r13, #12]
80004b64:	e2444001 	sub	r4, r4, #1
80004b68:	e59d3008 	ldr	r3, [r13, #8]
80004b6c:	e582401c 	str	r4, [r2, #28]
80004b70:	eaffff94 	b	800049c8 <f_open+0xe0>

80004b74 <f_read>:
80004b74:	e92d4ff0 	push	{r4, r5, r6, r7, r8, r9, r10, r11, r14}
80004b78:	e1a08003 	mov	r8, r3
80004b7c:	e5907004 	ldr	r7, [r0, #4]
80004b80:	e3a03000 	mov	r3, #0
80004b84:	e24dd00c 	sub	r13, r13, #12
80004b88:	e1c830b0 	strh	r3, [r8]
80004b8c:	e1570003 	cmp	r7, r3
80004b90:	e1a04000 	mov	r4, r0
80004b94:	e1d030b0 	ldrh	r3, [r0]
80004b98:	0a000003 	beq	80004bac <f_read+0x38>
80004b9c:	e1a06002 	mov	r6, r2
80004ba0:	e1d720b0 	ldrh	r2, [r7]
80004ba4:	e1520003 	cmp	r2, r3
80004ba8:	0a000003 	beq	80004bbc <f_read+0x48>
80004bac:	e3a0900c 	mov	r9, #12
80004bb0:	e1a00009 	mov	r0, r9
80004bb4:	e28dd00c 	add	r13, r13, #12
80004bb8:	e8bd8ff0 	pop	{r4, r5, r6, r7, r8, r9, r10, r11, r15}
80004bbc:	e1a00007 	mov	r0, r7
80004bc0:	e1a0b001 	mov	r11, r1
80004bc4:	ebfffc3d 	bl	80003cc0 <validate.part.0>
80004bc8:	e2509000 	subs	r9, r0, #0
80004bcc:	1afffff7 	bne	80004bb0 <f_read+0x3c>
80004bd0:	e5d43002 	ldrb	r3, [r4, #2]
80004bd4:	e3130080 	tst	r3, #128	; 0x80
80004bd8:	13a09008 	movne	r9, #8
80004bdc:	1afffff3 	bne	80004bb0 <f_read+0x3c>
80004be0:	e3130001 	tst	r3, #1
80004be4:	03a09006 	moveq	r9, #6
80004be8:	0afffff0 	beq	80004bb0 <f_read+0x3c>
80004bec:	e5943008 	ldr	r3, [r4, #8]
80004bf0:	e594200c 	ldr	r2, [r4, #12]
80004bf4:	e0632002 	rsb	r2, r3, r2
80004bf8:	e1520006 	cmp	r2, r6
80004bfc:	36ff6072 	uxthcc	r6, r2
80004c00:	e3560000 	cmp	r6, #0
80004c04:	0affffe9 	beq	80004bb0 <f_read+0x3c>
80004c08:	e2842048 	add	r2, r4, #72	; 0x48
80004c0c:	e58d2004 	str	r2, [r13, #4]
80004c10:	e7e81053 	ubfx	r1, r3, #0, #9
80004c14:	e3510000 	cmp	r1, #0
80004c18:	1a00002a 	bne	80004cc8 <f_read+0x154>
80004c1c:	e5d42003 	ldrb	r2, [r4, #3]
80004c20:	e2422001 	sub	r2, r2, #1
80004c24:	e6ef2072 	uxtb	r2, r2
80004c28:	e5c42003 	strb	r2, [r4, #3]
80004c2c:	e3520000 	cmp	r2, #0
80004c30:	0a000039 	beq	80004d1c <f_read+0x1a8>
80004c34:	e5945018 	ldr	r5, [r4, #24]
80004c38:	e2855001 	add	r5, r5, #1
80004c3c:	e5d43002 	ldrb	r3, [r4, #2]
80004c40:	e3130040 	tst	r3, #64	; 0x40
80004c44:	1a000046 	bne	80004d64 <f_read+0x1f0>
80004c48:	e1b034a6 	lsrs	r3, r6, #9
80004c4c:	e5845018 	str	r5, [r4, #24]
80004c50:	0a000013 	beq	80004ca4 <f_read+0x130>
80004c54:	e5d4c003 	ldrb	r12, [r4, #3]
80004c58:	e6ef3073 	uxtb	r3, r3
80004c5c:	e1a02005 	mov	r2, r5
80004c60:	e5d70027 	ldrb	r0, [r7, #39]	; 0x27
80004c64:	e153000c 	cmp	r3, r12
80004c68:	e1a0100b 	mov	r1, r11
80004c6c:	31a0a003 	movcc	r10, r3
80004c70:	21a0a00c 	movcs	r10, r12
80004c74:	e1a0300a 	mov	r3, r10
80004c78:	ebfffac5 	bl	80003794 <disk_read>
80004c7c:	e3500000 	cmp	r0, #0
80004c80:	0a00004b 	beq	80004db4 <f_read+0x240>
80004c84:	e5d43002 	ldrb	r3, [r4, #2]
80004c88:	e3a09008 	mov	r9, #8
80004c8c:	e1a00009 	mov	r0, r9
80004c90:	e1e03c83 	mvn	r3, r3, lsl #25
80004c94:	e1e03ca3 	mvn	r3, r3, lsr #25
80004c98:	e5c43002 	strb	r3, [r4, #2]
80004c9c:	e28dd00c 	add	r13, r13, #12
80004ca0:	e8bd8ff0 	pop	{r4, r5, r6, r7, r8, r9, r10, r11, r15}
80004ca4:	e1a02005 	mov	r2, r5
80004ca8:	e5d70027 	ldrb	r0, [r7, #39]	; 0x27
80004cac:	e59d1004 	ldr	r1, [r13, #4]
80004cb0:	e3a03001 	mov	r3, #1
80004cb4:	ebfffab6 	bl	80003794 <disk_read>
80004cb8:	e3500000 	cmp	r0, #0
80004cbc:	1afffff0 	bne	80004c84 <f_read+0x110>
80004cc0:	e5943008 	ldr	r3, [r4, #8]
80004cc4:	e7e81053 	ubfx	r1, r3, #0, #9
80004cc8:	e2615c02 	rsb	r5, r1, #512	; 0x200
80004ccc:	e2811048 	add	r1, r1, #72	; 0x48
80004cd0:	e0841001 	add	r1, r4, r1
80004cd4:	e1a0000b 	mov	r0, r11
80004cd8:	e6ff5075 	uxth	r5, r5
80004cdc:	e1550006 	cmp	r5, r6
80004ce0:	21a05006 	movcs	r5, r6
80004ce4:	e1a02005 	mov	r2, r5
80004ce8:	ebfff128 	bl	80001190 <memcpy>
80004cec:	e0656006 	rsb	r6, r5, r6
80004cf0:	e5943008 	ldr	r3, [r4, #8]
80004cf4:	e1d820b0 	ldrh	r2, [r8]
80004cf8:	e08bb005 	add	r11, r11, r5
80004cfc:	e6ff6076 	uxth	r6, r6
80004d00:	e0853003 	add	r3, r5, r3
80004d04:	e3560000 	cmp	r6, #0
80004d08:	e5843008 	str	r3, [r4, #8]
80004d0c:	e0855002 	add	r5, r5, r2
80004d10:	e1c850b0 	strh	r5, [r8]
80004d14:	1affffbd 	bne	80004c10 <f_read+0x9c>
80004d18:	eaffffa4 	b	80004bb0 <f_read+0x3c>
80004d1c:	e3530000 	cmp	r3, #0
80004d20:	1a00001a 	bne	80004d90 <f_read+0x21c>
80004d24:	e5940010 	ldr	r0, [r4, #16]
80004d28:	e3500001 	cmp	r0, #1
80004d2c:	9affffd4 	bls	80004c84 <f_read+0x110>
80004d30:	e597300c 	ldr	r3, [r7, #12]
80004d34:	e1500003 	cmp	r0, r3
80004d38:	2affffd1 	bcs	80004c84 <f_read+0x110>
80004d3c:	e2433002 	sub	r3, r3, #2
80004d40:	e2402002 	sub	r2, r0, #2
80004d44:	e1520003 	cmp	r2, r3
80004d48:	e5840014 	str	r0, [r4, #20]
80004d4c:	e5d73025 	ldrb	r3, [r7, #37]	; 0x25
80004d50:	35975018 	ldrcc	r5, [r7, #24]
80004d54:	23a05000 	movcs	r5, #0
80004d58:	e5c43003 	strb	r3, [r4, #3]
80004d5c:	30255293 	mlacc	r5, r3, r2, r5
80004d60:	eaffffb5 	b	80004c3c <f_read+0xc8>
80004d64:	e5d70027 	ldrb	r0, [r7, #39]	; 0x27
80004d68:	e3a03001 	mov	r3, #1
80004d6c:	e59d1004 	ldr	r1, [r13, #4]
80004d70:	e5942018 	ldr	r2, [r4, #24]
80004d74:	ebfffaa5 	bl	80003810 <disk_write>
80004d78:	e3500000 	cmp	r0, #0
80004d7c:	1affffc0 	bne	80004c84 <f_read+0x110>
80004d80:	e5d43002 	ldrb	r3, [r4, #2]
80004d84:	e3c33040 	bic	r3, r3, #64	; 0x40
80004d88:	e5c43002 	strb	r3, [r4, #2]
80004d8c:	eaffffad 	b	80004c48 <f_read+0xd4>
80004d90:	e5941014 	ldr	r1, [r4, #20]
80004d94:	e3510001 	cmp	r1, #1
80004d98:	9affffb9 	bls	80004c84 <f_read+0x110>
80004d9c:	e597300c 	ldr	r3, [r7, #12]
80004da0:	e1530001 	cmp	r3, r1
80004da4:	9affffb6 	bls	80004c84 <f_read+0x110>
80004da8:	e1a00007 	mov	r0, r7
80004dac:	ebfffcab 	bl	80004060 <get_cluster.part.2>
80004db0:	eaffffdc 	b	80004d28 <f_read+0x1b4>
80004db4:	e5d42003 	ldrb	r2, [r4, #3]
80004db8:	e1a0548a 	lsl	r5, r10, #9
80004dbc:	e5943018 	ldr	r3, [r4, #24]
80004dc0:	e2822001 	add	r2, r2, #1
80004dc4:	e6ff5075 	uxth	r5, r5
80004dc8:	e2433001 	sub	r3, r3, #1
80004dcc:	e06a2002 	rsb	r2, r10, r2
80004dd0:	e083300a 	add	r3, r3, r10
80004dd4:	e5c42003 	strb	r2, [r4, #3]
80004dd8:	e5843018 	str	r3, [r4, #24]
80004ddc:	eaffffc2 	b	80004cec <f_read+0x178>

80004de0 <f_write>:
80004de0:	e92d4ff0 	push	{r4, r5, r6, r7, r8, r9, r10, r11, r14}
80004de4:	e1a08003 	mov	r8, r3
80004de8:	e5907004 	ldr	r7, [r0, #4]
80004dec:	e3a03000 	mov	r3, #0
80004df0:	e24dd00c 	sub	r13, r13, #12
80004df4:	e1c830b0 	strh	r3, [r8]
80004df8:	e1570003 	cmp	r7, r3
80004dfc:	e1a04000 	mov	r4, r0
80004e00:	e1d030b0 	ldrh	r3, [r0]
80004e04:	0a000003 	beq	80004e18 <f_write+0x38>
80004e08:	e1a06002 	mov	r6, r2
80004e0c:	e1d720b0 	ldrh	r2, [r7]
80004e10:	e1520003 	cmp	r2, r3
80004e14:	0a000003 	beq	80004e28 <f_write+0x48>
80004e18:	e3a0900c 	mov	r9, #12
80004e1c:	e1a00009 	mov	r0, r9
80004e20:	e28dd00c 	add	r13, r13, #12
80004e24:	e8bd8ff0 	pop	{r4, r5, r6, r7, r8, r9, r10, r11, r15}
80004e28:	e1a00007 	mov	r0, r7
80004e2c:	e1a0b001 	mov	r11, r1
80004e30:	ebfffba2 	bl	80003cc0 <validate.part.0>
80004e34:	e2509000 	subs	r9, r0, #0
80004e38:	1afffff7 	bne	80004e1c <f_write+0x3c>
80004e3c:	e5d43002 	ldrb	r3, [r4, #2]
80004e40:	e3130080 	tst	r3, #128	; 0x80
80004e44:	13a09008 	movne	r9, #8
80004e48:	1afffff3 	bne	80004e1c <f_write+0x3c>
80004e4c:	e3130002 	tst	r3, #2
80004e50:	03a09006 	moveq	r9, #6
80004e54:	0afffff0 	beq	80004e1c <f_write+0x3c>
80004e58:	e594200c 	ldr	r2, [r4, #12]
80004e5c:	e1760002 	cmn	r6, r2
80004e60:	2affffed 	bcs	80004e1c <f_write+0x3c>
80004e64:	e3560000 	cmp	r6, #0
80004e68:	e5941008 	ldr	r1, [r4, #8]
80004e6c:	12843048 	addne	r3, r4, #72	; 0x48
80004e70:	158d3004 	strne	r3, [r13, #4]
80004e74:	0a00005c 	beq	80004fec <f_write+0x20c>
80004e78:	e7e80051 	ubfx	r0, r1, #0, #9
80004e7c:	e3500000 	cmp	r0, #0
80004e80:	1a000023 	bne	80004f14 <f_write+0x134>
80004e84:	e5d43003 	ldrb	r3, [r4, #3]
80004e88:	e2433001 	sub	r3, r3, #1
80004e8c:	e6ef3073 	uxtb	r3, r3
80004e90:	e5c43003 	strb	r3, [r4, #3]
80004e94:	e3530000 	cmp	r3, #0
80004e98:	0a000037 	beq	80004f7c <f_write+0x19c>
80004e9c:	e5945018 	ldr	r5, [r4, #24]
80004ea0:	e2855001 	add	r5, r5, #1
80004ea4:	e5d43002 	ldrb	r3, [r4, #2]
80004ea8:	e3130040 	tst	r3, #64	; 0x40
80004eac:	1a000053 	bne	80005000 <f_write+0x220>
80004eb0:	e1b034a6 	lsrs	r3, r6, #9
80004eb4:	e5845018 	str	r5, [r4, #24]
80004eb8:	0a000010 	beq	80004f00 <f_write+0x120>
80004ebc:	e5d4c003 	ldrb	r12, [r4, #3]
80004ec0:	e1a02005 	mov	r2, r5
80004ec4:	e5d70027 	ldrb	r0, [r7, #39]	; 0x27
80004ec8:	e1a0100b 	mov	r1, r11
80004ecc:	e153000c 	cmp	r3, r12
80004ed0:	31a0a003 	movcc	r10, r3
80004ed4:	21a0a00c 	movcs	r10, r12
80004ed8:	e1a0300a 	mov	r3, r10
80004edc:	ebfffa4b 	bl	80003810 <disk_write>
80004ee0:	e3500000 	cmp	r0, #0
80004ee4:	0a000050 	beq	8000502c <f_write+0x24c>
80004ee8:	e5d43002 	ldrb	r3, [r4, #2]
80004eec:	e3a09008 	mov	r9, #8
80004ef0:	e1e03c83 	mvn	r3, r3, lsl #25
80004ef4:	e1e03ca3 	mvn	r3, r3, lsr #25
80004ef8:	e5c43002 	strb	r3, [r4, #2]
80004efc:	eaffffc6 	b	80004e1c <f_write+0x3c>
80004f00:	e5941008 	ldr	r1, [r4, #8]
80004f04:	e594300c 	ldr	r3, [r4, #12]
80004f08:	e1510003 	cmp	r1, r3
80004f0c:	3a000055 	bcc	80005068 <f_write+0x288>
80004f10:	e7e80051 	ubfx	r0, r1, #0, #9
80004f14:	e2605c02 	rsb	r5, r0, #512	; 0x200
80004f18:	e2800048 	add	r0, r0, #72	; 0x48
80004f1c:	e0840000 	add	r0, r4, r0
80004f20:	e1a0100b 	mov	r1, r11
80004f24:	e6ff5075 	uxth	r5, r5
80004f28:	e1550006 	cmp	r5, r6
80004f2c:	21a05006 	movcs	r5, r6
80004f30:	e1a02005 	mov	r2, r5
80004f34:	ebfff095 	bl	80001190 <memcpy>
80004f38:	e5d43002 	ldrb	r3, [r4, #2]
80004f3c:	e3833040 	orr	r3, r3, #64	; 0x40
80004f40:	e5c43002 	strb	r3, [r4, #2]
80004f44:	e0656006 	rsb	r6, r5, r6
80004f48:	e5941008 	ldr	r1, [r4, #8]
80004f4c:	e1d830b0 	ldrh	r3, [r8]
80004f50:	e08bb005 	add	r11, r11, r5
80004f54:	e6ff6076 	uxth	r6, r6
80004f58:	e0851001 	add	r1, r5, r1
80004f5c:	e3560000 	cmp	r6, #0
80004f60:	e5841008 	str	r1, [r4, #8]
80004f64:	e0855003 	add	r5, r5, r3
80004f68:	e1c850b0 	strh	r5, [r8]
80004f6c:	1affffc1 	bne	80004e78 <f_write+0x98>
80004f70:	e594200c 	ldr	r2, [r4, #12]
80004f74:	e5d43002 	ldrb	r3, [r4, #2]
80004f78:	ea00001b 	b	80004fec <f_write+0x20c>
80004f7c:	e3510000 	cmp	r1, #0
80004f80:	1a000034 	bne	80005058 <f_write+0x278>
80004f84:	e5940010 	ldr	r0, [r4, #16]
80004f88:	e3500000 	cmp	r0, #0
80004f8c:	0a00000e 	beq	80004fcc <f_write+0x1ec>
80004f90:	e3500001 	cmp	r0, #1
80004f94:	0affffd3 	beq	80004ee8 <f_write+0x108>
80004f98:	e597300c 	ldr	r3, [r7, #12]
80004f9c:	e1530000 	cmp	r3, r0
80004fa0:	9affffd0 	bls	80004ee8 <f_write+0x108>
80004fa4:	e2433002 	sub	r3, r3, #2
80004fa8:	e2402002 	sub	r2, r0, #2
80004fac:	e1520003 	cmp	r2, r3
80004fb0:	e5840014 	str	r0, [r4, #20]
80004fb4:	e5d73025 	ldrb	r3, [r7, #37]	; 0x25
80004fb8:	35975018 	ldrcc	r5, [r7, #24]
80004fbc:	23a05000 	movcs	r5, #0
80004fc0:	e5c43003 	strb	r3, [r4, #3]
80004fc4:	30255293 	mlacc	r5, r3, r2, r5
80004fc8:	eaffffb5 	b	80004ea4 <f_write+0xc4>
80004fcc:	e1a00007 	mov	r0, r7
80004fd0:	ebfffd51 	bl	8000451c <create_chain>
80004fd4:	e5840010 	str	r0, [r4, #16]
80004fd8:	e3500000 	cmp	r0, #0
80004fdc:	1affffeb 	bne	80004f90 <f_write+0x1b0>
80004fe0:	e5941008 	ldr	r1, [r4, #8]
80004fe4:	e594200c 	ldr	r2, [r4, #12]
80004fe8:	e5d43002 	ldrb	r3, [r4, #2]
80004fec:	e1510002 	cmp	r1, r2
80004ff0:	e3833020 	orr	r3, r3, #32
80004ff4:	8584100c 	strhi	r1, [r4, #12]
80004ff8:	e5c43002 	strb	r3, [r4, #2]
80004ffc:	eaffff86 	b	80004e1c <f_write+0x3c>
80005000:	e5d70027 	ldrb	r0, [r7, #39]	; 0x27
80005004:	e3a03001 	mov	r3, #1
80005008:	e59d1004 	ldr	r1, [r13, #4]
8000500c:	e5942018 	ldr	r2, [r4, #24]
80005010:	ebfff9fe 	bl	80003810 <disk_write>
80005014:	e3500000 	cmp	r0, #0
80005018:	1affffb2 	bne	80004ee8 <f_write+0x108>
8000501c:	e5d43002 	ldrb	r3, [r4, #2]
80005020:	e3c33040 	bic	r3, r3, #64	; 0x40
80005024:	e5c43002 	strb	r3, [r4, #2]
80005028:	eaffffa0 	b	80004eb0 <f_write+0xd0>
8000502c:	e5d42003 	ldrb	r2, [r4, #3]
80005030:	e1a0548a 	lsl	r5, r10, #9
80005034:	e5943018 	ldr	r3, [r4, #24]
80005038:	e2822001 	add	r2, r2, #1
8000503c:	e6ff5075 	uxth	r5, r5
80005040:	e2433001 	sub	r3, r3, #1
80005044:	e06a2002 	rsb	r2, r10, r2
80005048:	e083300a 	add	r3, r3, r10
8000504c:	e5c42003 	strb	r2, [r4, #3]
80005050:	e5843018 	str	r3, [r4, #24]
80005054:	eaffffba 	b	80004f44 <f_write+0x164>
80005058:	e1a00007 	mov	r0, r7
8000505c:	e5941014 	ldr	r1, [r4, #20]
80005060:	ebfffd2d 	bl	8000451c <create_chain>
80005064:	eaffffdb 	b	80004fd8 <f_write+0x1f8>
80005068:	e1a02005 	mov	r2, r5
8000506c:	e5d70027 	ldrb	r0, [r7, #39]	; 0x27
80005070:	e59d1004 	ldr	r1, [r13, #4]
80005074:	e3a03001 	mov	r3, #1
80005078:	ebfff9c5 	bl	80003794 <disk_read>
8000507c:	e3500000 	cmp	r0, #0
80005080:	1affff98 	bne	80004ee8 <f_write+0x108>
80005084:	e5941008 	ldr	r1, [r4, #8]
80005088:	eaffffa0 	b	80004f10 <f_write+0x130>

8000508c <f_sync>:
8000508c:	e92d4070 	push	{r4, r5, r6, r14}
80005090:	e5905004 	ldr	r5, [r0, #4]
80005094:	e1d030b0 	ldrh	r3, [r0]
80005098:	e3550000 	cmp	r5, #0
8000509c:	0a000002 	beq	800050ac <f_sync+0x20>
800050a0:	e1d520b0 	ldrh	r2, [r5]
800050a4:	e1520003 	cmp	r2, r3
800050a8:	0a000001 	beq	800050b4 <f_sync+0x28>
800050ac:	e3a0000c 	mov	r0, #12
800050b0:	e8bd8070 	pop	{r4, r5, r6, r15}
800050b4:	e1a04000 	mov	r4, r0
800050b8:	e1a00005 	mov	r0, r5
800050bc:	ebfffaff 	bl	80003cc0 <validate.part.0>
800050c0:	e3500000 	cmp	r0, #0
800050c4:	18bd8070 	popne	{r4, r5, r6, r15}
800050c8:	e5d43002 	ldrb	r3, [r4, #2]
800050cc:	e3130020 	tst	r3, #32
800050d0:	08bd8070 	popeq	{r4, r5, r6, r15}
800050d4:	e3130040 	tst	r3, #64	; 0x40
800050d8:	0a00000b 	beq	8000510c <f_sync+0x80>
800050dc:	e5d50027 	ldrb	r0, [r5, #39]	; 0x27
800050e0:	e2841048 	add	r1, r4, #72	; 0x48
800050e4:	e5942018 	ldr	r2, [r4, #24]
800050e8:	e3a03001 	mov	r3, #1
800050ec:	ebfff9c7 	bl	80003810 <disk_write>
800050f0:	e3500000 	cmp	r0, #0
800050f4:	0a000001 	beq	80005100 <f_sync+0x74>
800050f8:	e3a00008 	mov	r0, #8
800050fc:	e8bd8070 	pop	{r4, r5, r6, r15}
80005100:	e5d43002 	ldrb	r3, [r4, #2]
80005104:	e3c33040 	bic	r3, r3, #64	; 0x40
80005108:	e5c43002 	strb	r3, [r4, #2]
8000510c:	e1a00005 	mov	r0, r5
80005110:	e594101c 	ldr	r1, [r4, #28]
80005114:	ebfffa58 	bl	80003a7c <move_window>
80005118:	e3500000 	cmp	r0, #0
8000511c:	0afffff5 	beq	800050f8 <f_sync+0x6c>
80005120:	e5946020 	ldr	r6, [r4, #32]
80005124:	e5d6300b 	ldrb	r3, [r6, #11]
80005128:	e3833020 	orr	r3, r3, #32
8000512c:	e5c6300b 	strb	r3, [r6, #11]
80005130:	e594300c 	ldr	r3, [r4, #12]
80005134:	e5c6301c 	strb	r3, [r6, #28]
80005138:	e1d430bc 	ldrh	r3, [r4, #12]
8000513c:	e1a03423 	lsr	r3, r3, #8
80005140:	e5c6301d 	strb	r3, [r6, #29]
80005144:	e1d430be 	ldrh	r3, [r4, #14]
80005148:	e5c6301e 	strb	r3, [r6, #30]
8000514c:	e5d4300f 	ldrb	r3, [r4, #15]
80005150:	e5c6301f 	strb	r3, [r6, #31]
80005154:	e5943010 	ldr	r3, [r4, #16]
80005158:	e5c6301a 	strb	r3, [r6, #26]
8000515c:	e1d431b0 	ldrh	r3, [r4, #16]
80005160:	e1a03423 	lsr	r3, r3, #8
80005164:	e5c6301b 	strb	r3, [r6, #27]
80005168:	e1d431b2 	ldrh	r3, [r4, #18]
8000516c:	e5c63014 	strb	r3, [r6, #20]
80005170:	e1d431b2 	ldrh	r3, [r4, #18]
80005174:	e1a03423 	lsr	r3, r3, #8
80005178:	e5c63015 	strb	r3, [r6, #21]
8000517c:	ebfff9c6 	bl	8000389c <get_fattime>
80005180:	e5c60016 	strb	r0, [r6, #22]
80005184:	e7e73450 	ubfx	r3, r0, #8, #8
80005188:	e1a02820 	lsr	r2, r0, #16
8000518c:	e5c63017 	strb	r3, [r6, #23]
80005190:	e5c62018 	strb	r2, [r6, #24]
80005194:	e1a00c20 	lsr	r0, r0, #24
80005198:	e5c60019 	strb	r0, [r6, #25]
8000519c:	e1a00005 	mov	r0, r5
800051a0:	e5d43002 	ldrb	r3, [r4, #2]
800051a4:	e3c33020 	bic	r3, r3, #32
800051a8:	e5c43002 	strb	r3, [r4, #2]
800051ac:	e8bd4070 	pop	{r4, r5, r6, r14}
800051b0:	eafffd80 	b	800047b8 <sync>

800051b4 <f_close>:
800051b4:	e92d4010 	push	{r4, r14}
800051b8:	e1a04000 	mov	r4, r0
800051bc:	ebffffb2 	bl	8000508c <f_sync>
800051c0:	e3500000 	cmp	r0, #0
800051c4:	05840004 	streq	r0, [r4, #4]
800051c8:	e8bd8010 	pop	{r4, r15}

800051cc <f_lseek>:
800051cc:	e92d41f0 	push	{r4, r5, r6, r7, r8, r14}
800051d0:	e1a04000 	mov	r4, r0
800051d4:	e5905004 	ldr	r5, [r0, #4]
800051d8:	e1d030b0 	ldrh	r3, [r0]
800051dc:	e3550000 	cmp	r5, #0
800051e0:	0a000002 	beq	800051f0 <f_lseek+0x24>
800051e4:	e1d520b0 	ldrh	r2, [r5]
800051e8:	e1520003 	cmp	r2, r3
800051ec:	0a000002 	beq	800051fc <f_lseek+0x30>
800051f0:	e3a0700c 	mov	r7, #12
800051f4:	e1a00007 	mov	r0, r7
800051f8:	e8bd81f0 	pop	{r4, r5, r6, r7, r8, r15}
800051fc:	e1a00005 	mov	r0, r5
80005200:	e1a06001 	mov	r6, r1
80005204:	ebfffaad 	bl	80003cc0 <validate.part.0>
80005208:	e2507000 	subs	r7, r0, #0
8000520c:	1afffff8 	bne	800051f4 <f_lseek+0x28>
80005210:	e5d43002 	ldrb	r3, [r4, #2]
80005214:	e3130080 	tst	r3, #128	; 0x80
80005218:	13a07008 	movne	r7, #8
8000521c:	1afffff4 	bne	800051f4 <f_lseek+0x28>
80005220:	e3130040 	tst	r3, #64	; 0x40
80005224:	1a000051 	bne	80005370 <f_lseek+0x1a4>
80005228:	e594300c 	ldr	r3, [r4, #12]
8000522c:	e1530006 	cmp	r3, r6
80005230:	2a000002 	bcs	80005240 <f_lseek+0x74>
80005234:	e5d42002 	ldrb	r2, [r4, #2]
80005238:	e3120002 	tst	r2, #2
8000523c:	01a06003 	moveq	r6, r3
80005240:	e3560000 	cmp	r6, #0
80005244:	e3a02000 	mov	r2, #0
80005248:	e3a03001 	mov	r3, #1
8000524c:	e5842008 	str	r2, [r4, #8]
80005250:	e5c43003 	strb	r3, [r4, #3]
80005254:	0a00003b 	beq	80005348 <f_lseek+0x17c>
80005258:	e5940010 	ldr	r0, [r4, #16]
8000525c:	e1500002 	cmp	r0, r2
80005260:	0a000053 	beq	800053b4 <f_lseek+0x1e8>
80005264:	e5d58025 	ldrb	r8, [r5, #37]	; 0x25
80005268:	e5840014 	str	r0, [r4, #20]
8000526c:	e1a08488 	lsl	r8, r8, #9
80005270:	e1560008 	cmp	r6, r8
80005274:	9a000061 	bls	80005400 <f_lseek+0x234>
80005278:	e5d42002 	ldrb	r2, [r4, #2]
8000527c:	e3120002 	tst	r2, #2
80005280:	1a00000a 	bne	800052b0 <f_lseek+0xe4>
80005284:	e3500001 	cmp	r0, #1
80005288:	9a000002 	bls	80005298 <f_lseek+0xcc>
8000528c:	e595100c 	ldr	r1, [r5, #12]
80005290:	e1500001 	cmp	r0, r1
80005294:	3a00003e 	bcc	80005394 <f_lseek+0x1c8>
80005298:	e3a07008 	mov	r7, #8
8000529c:	e1e02c82 	mvn	r2, r2, lsl #25
800052a0:	e1e02ca2 	mvn	r2, r2, lsr #25
800052a4:	e1a00007 	mov	r0, r7
800052a8:	e5c42002 	strb	r2, [r4, #2]
800052ac:	e8bd81f0 	pop	{r4, r5, r6, r7, r8, r15}
800052b0:	e1a01000 	mov	r1, r0
800052b4:	e1a00005 	mov	r0, r5
800052b8:	ebfffc97 	bl	8000451c <create_chain>
800052bc:	e3500000 	cmp	r0, #0
800052c0:	e0686006 	rsb	r6, r8, r6
800052c4:	0a000043 	beq	800053d8 <f_lseek+0x20c>
800052c8:	e3500001 	cmp	r0, #1
800052cc:	0a00002e 	beq	8000538c <f_lseek+0x1c0>
800052d0:	e595100c 	ldr	r1, [r5, #12]
800052d4:	e1500001 	cmp	r0, r1
800052d8:	2a00002b 	bcs	8000538c <f_lseek+0x1c0>
800052dc:	e5942008 	ldr	r2, [r4, #8]
800052e0:	e1580006 	cmp	r8, r6
800052e4:	e5840014 	str	r0, [r4, #20]
800052e8:	e0822008 	add	r2, r2, r8
800052ec:	e5842008 	str	r2, [r4, #8]
800052f0:	3affffe0 	bcc	80005278 <f_lseek+0xac>
800052f4:	e2403002 	sub	r3, r0, #2
800052f8:	e1a08006 	mov	r8, r6
800052fc:	e2411002 	sub	r1, r1, #2
80005300:	e2486001 	sub	r6, r8, #1
80005304:	e1510003 	cmp	r1, r3
80005308:	e7e764d6 	ubfx	r6, r6, #9, #8
8000530c:	85952018 	ldrhi	r2, [r5, #24]
80005310:	93a02000 	movls	r2, #0
80005314:	85d51025 	ldrbhi	r1, [r5, #37]	; 0x25
80005318:	80222391 	mlahi	r2, r1, r3, r2
8000531c:	e7e83058 	ubfx	r3, r8, #0, #9
80005320:	e3530000 	cmp	r3, #0
80005324:	e0822006 	add	r2, r2, r6
80005328:	e5842018 	str	r2, [r4, #24]
8000532c:	1a00002c 	bne	800053e4 <f_lseek+0x218>
80005330:	e5d52025 	ldrb	r2, [r5, #37]	; 0x25
80005334:	e5943008 	ldr	r3, [r4, #8]
80005338:	e0666002 	rsb	r6, r6, r2
8000533c:	e5c46003 	strb	r6, [r4, #3]
80005340:	e0838008 	add	r8, r3, r8
80005344:	e5848008 	str	r8, [r4, #8]
80005348:	e5d43002 	ldrb	r3, [r4, #2]
8000534c:	e3130002 	tst	r3, #2
80005350:	0affffa7 	beq	800051f4 <f_lseek+0x28>
80005354:	e5942008 	ldr	r2, [r4, #8]
80005358:	e594100c 	ldr	r1, [r4, #12]
8000535c:	e1520001 	cmp	r2, r1
80005360:	83833020 	orrhi	r3, r3, #32
80005364:	8584200c 	strhi	r2, [r4, #12]
80005368:	85c43002 	strbhi	r3, [r4, #2]
8000536c:	eaffffa0 	b	800051f4 <f_lseek+0x28>
80005370:	e5d50027 	ldrb	r0, [r5, #39]	; 0x27
80005374:	e2841048 	add	r1, r4, #72	; 0x48
80005378:	e5942018 	ldr	r2, [r4, #24]
8000537c:	e3a03001 	mov	r3, #1
80005380:	ebfff922 	bl	80003810 <disk_write>
80005384:	e3500000 	cmp	r0, #0
80005388:	0a000005 	beq	800053a4 <f_lseek+0x1d8>
8000538c:	e5d42002 	ldrb	r2, [r4, #2]
80005390:	eaffffc0 	b	80005298 <f_lseek+0xcc>
80005394:	e1a01000 	mov	r1, r0
80005398:	e1a00005 	mov	r0, r5
8000539c:	ebfffb2f 	bl	80004060 <get_cluster.part.2>
800053a0:	eaffffc5 	b	800052bc <f_lseek+0xf0>
800053a4:	e5d43002 	ldrb	r3, [r4, #2]
800053a8:	e3c33040 	bic	r3, r3, #64	; 0x40
800053ac:	e5c43002 	strb	r3, [r4, #2]
800053b0:	eaffff9c 	b	80005228 <f_lseek+0x5c>
800053b4:	e1a01000 	mov	r1, r0
800053b8:	e1a00005 	mov	r0, r5
800053bc:	ebfffc56 	bl	8000451c <create_chain>
800053c0:	e3500001 	cmp	r0, #1
800053c4:	0afffff0 	beq	8000538c <f_lseek+0x1c0>
800053c8:	e3500000 	cmp	r0, #0
800053cc:	e5840010 	str	r0, [r4, #16]
800053d0:	0affffdc 	beq	80005348 <f_lseek+0x17c>
800053d4:	eaffffa2 	b	80005264 <f_lseek+0x98>
800053d8:	e595100c 	ldr	r1, [r5, #12]
800053dc:	e3e03001 	mvn	r3, #1
800053e0:	eaffffc5 	b	800052fc <f_lseek+0x130>
800053e4:	e5d50027 	ldrb	r0, [r5, #39]	; 0x27
800053e8:	e2841048 	add	r1, r4, #72	; 0x48
800053ec:	e3a03001 	mov	r3, #1
800053f0:	ebfff8e7 	bl	80003794 <disk_read>
800053f4:	e3500000 	cmp	r0, #0
800053f8:	1affffe3 	bne	8000538c <f_lseek+0x1c0>
800053fc:	eaffffcb 	b	80005330 <f_lseek+0x164>
80005400:	e2403002 	sub	r3, r0, #2
80005404:	e1a08006 	mov	r8, r6
80005408:	e595100c 	ldr	r1, [r5, #12]
8000540c:	eaffffba 	b	800052fc <f_lseek+0x130>

80005410 <f_opendir>:
80005410:	e92d4010 	push	{r4, r14}
80005414:	e24dd020 	sub	r13, r13, #32
80005418:	e28d3020 	add	r3, r13, #32
8000541c:	e1a04000 	mov	r4, r0
80005420:	e3a02000 	mov	r2, #0
80005424:	e523101c 	str	r1, [r3, #-28]!	; 0xffffffe4
80005428:	e28d1010 	add	r1, r13, #16
8000542c:	e1a00003 	mov	r0, r3
80005430:	ebfffa4b 	bl	80003d64 <auto_mount>
80005434:	e3500000 	cmp	r0, #0
80005438:	0a000001 	beq	80005444 <f_opendir+0x34>
8000543c:	e28dd020 	add	r13, r13, #32
80005440:	e8bd8010 	pop	{r4, r15}
80005444:	e59dc010 	ldr	r12, [r13, #16]
80005448:	e28d300c 	add	r3, r13, #12
8000544c:	e1a00004 	mov	r0, r4
80005450:	e28d1014 	add	r1, r13, #20
80005454:	e59d2004 	ldr	r2, [r13, #4]
80005458:	e584c004 	str	r12, [r4, #4]
8000545c:	ebfffb73 	bl	80004230 <trace_path>
80005460:	e2503000 	subs	r3, r0, #0
80005464:	11a00003 	movne	r0, r3
80005468:	1afffff3 	bne	8000543c <f_opendir+0x2c>
8000546c:	e59d100c 	ldr	r1, [r13, #12]
80005470:	e3510000 	cmp	r1, #0
80005474:	059d0010 	ldreq	r0, [r13, #16]
80005478:	0a000004 	beq	80005490 <f_opendir+0x80>
8000547c:	e5d1200b 	ldrb	r2, [r1, #11]
80005480:	e3120010 	tst	r2, #16
80005484:	1a000006 	bne	800054a4 <f_opendir+0x94>
80005488:	e59d0010 	ldr	r0, [r13, #16]
8000548c:	e3a03002 	mov	r3, #2
80005490:	e1d020b0 	ldrh	r2, [r0]
80005494:	e1a00003 	mov	r0, r3
80005498:	e1c420b0 	strh	r2, [r4]
8000549c:	e28dd020 	add	r13, r13, #32
800054a0:	e8bd8010 	pop	{r4, r15}
800054a4:	e5d1e015 	ldrb	r14, [r1, #21]
800054a8:	e5d1c014 	ldrb	r12, [r1, #20]
800054ac:	e5d1201b 	ldrb	r2, [r1, #27]
800054b0:	e59d0010 	ldr	r0, [r13, #16]
800054b4:	e18ce40e 	orr	r14, r12, r14, lsl #8
800054b8:	e5d1101a 	ldrb	r1, [r1, #26]
800054bc:	e590c00c 	ldr	r12, [r0, #12]
800054c0:	e1812402 	orr	r2, r1, r2, lsl #8
800054c4:	e182280e 	orr	r2, r2, r14, lsl #16
800054c8:	e584200c 	str	r2, [r4, #12]
800054cc:	e24c1002 	sub	r1, r12, #2
800054d0:	e2422002 	sub	r2, r2, #2
800054d4:	e1520001 	cmp	r2, r1
800054d8:	35d0c025 	ldrbcc	r12, [r0, #37]	; 0x25
800054dc:	21a02003 	movcs	r2, r3
800054e0:	35901018 	ldrcc	r1, [r0, #24]
800054e4:	3022129c 	mlacc	r2, r12, r2, r1
800054e8:	e5842010 	str	r2, [r4, #16]
800054ec:	e3a02002 	mov	r2, #2
800054f0:	e1c420b2 	strh	r2, [r4, #2]
800054f4:	eaffffe5 	b	80005490 <f_opendir+0x80>

800054f8 <f_readdir>:
800054f8:	e92d40f8 	push	{r3, r4, r5, r6, r7, r14}
800054fc:	e5905004 	ldr	r5, [r0, #4]
80005500:	e1d030b0 	ldrh	r3, [r0]
80005504:	e3550000 	cmp	r5, #0
80005508:	0a000002 	beq	80005518 <f_readdir+0x20>
8000550c:	e1d520b0 	ldrh	r2, [r5]
80005510:	e1520003 	cmp	r2, r3
80005514:	0a000002 	beq	80005524 <f_readdir+0x2c>
80005518:	e3a0700c 	mov	r7, #12
8000551c:	e1a00007 	mov	r0, r7
80005520:	e8bd80f8 	pop	{r3, r4, r5, r6, r7, r15}
80005524:	e1a04000 	mov	r4, r0
80005528:	e1a00005 	mov	r0, r5
8000552c:	e1a06001 	mov	r6, r1
80005530:	ebfff9e2 	bl	80003cc0 <validate.part.0>
80005534:	e2507000 	subs	r7, r0, #0
80005538:	1afffff7 	bne	8000551c <f_readdir+0x24>
8000553c:	e5c67009 	strb	r7, [r6, #9]
80005540:	ea000006 	b	80005560 <f_readdir+0x68>
80005544:	e1a00004 	mov	r0, r4
80005548:	ebfffb08 	bl	80004170 <next_dir_entry>
8000554c:	e3500000 	cmp	r0, #0
80005550:	05840010 	streq	r0, [r4, #16]
80005554:	e5d63009 	ldrb	r3, [r6, #9]
80005558:	e3530000 	cmp	r3, #0
8000555c:	1affffee 	bne	8000551c <f_readdir+0x24>
80005560:	e5941010 	ldr	r1, [r4, #16]
80005564:	e1a00005 	mov	r0, r5
80005568:	e3510000 	cmp	r1, #0
8000556c:	0affffea 	beq	8000551c <f_readdir+0x24>
80005570:	ebfff941 	bl	80003a7c <move_window>
80005574:	e3500000 	cmp	r0, #0
80005578:	0a000010 	beq	800055c0 <f_readdir+0xc8>
8000557c:	e1d430b2 	ldrh	r3, [r4, #2]
80005580:	e203300f 	and	r3, r3, #15
80005584:	e1a03283 	lsl	r3, r3, #5
80005588:	e2831040 	add	r1, r3, #64	; 0x40
8000558c:	e0853003 	add	r3, r5, r3
80005590:	e0851001 	add	r1, r5, r1
80005594:	e5d33040 	ldrb	r3, [r3, #64]	; 0x40
80005598:	e3530000 	cmp	r3, #0
8000559c:	0affffde 	beq	8000551c <f_readdir+0x24>
800055a0:	e35300e5 	cmp	r3, #229	; 0xe5
800055a4:	0affffe6 	beq	80005544 <f_readdir+0x4c>
800055a8:	e5d1300b 	ldrb	r3, [r1, #11]
800055ac:	e3130008 	tst	r3, #8
800055b0:	1affffe3 	bne	80005544 <f_readdir+0x4c>
800055b4:	e1a00006 	mov	r0, r6
800055b8:	ebfff8ea 	bl	80003968 <get_fileinfo>
800055bc:	eaffffe0 	b	80005544 <f_readdir+0x4c>
800055c0:	e3a07008 	mov	r7, #8
800055c4:	e1a00007 	mov	r0, r7
800055c8:	e8bd80f8 	pop	{r3, r4, r5, r6, r7, r15}

800055cc <f_stat>:
800055cc:	e92d4030 	push	{r4, r5, r14}
800055d0:	e24dd034 	sub	r13, r13, #52	; 0x34
800055d4:	e28d3030 	add	r3, r13, #48	; 0x30
800055d8:	e1a05001 	mov	r5, r1
800055dc:	e3a02000 	mov	r2, #0
800055e0:	e28d100c 	add	r1, r13, #12
800055e4:	e523002c 	str	r0, [r3, #-44]!	; 0xffffffd4
800055e8:	e1a00003 	mov	r0, r3
800055ec:	ebfff9dc 	bl	80003d64 <auto_mount>
800055f0:	e3500000 	cmp	r0, #0
800055f4:	0a000001 	beq	80005600 <f_stat+0x34>
800055f8:	e28dd034 	add	r13, r13, #52	; 0x34
800055fc:	e8bd8030 	pop	{r4, r5, r15}
80005600:	e59dc00c 	ldr	r12, [r13, #12]
80005604:	e28d001c 	add	r0, r13, #28
80005608:	e28d1010 	add	r1, r13, #16
8000560c:	e59d2004 	ldr	r2, [r13, #4]
80005610:	e28d3008 	add	r3, r13, #8
80005614:	e58dc020 	str	r12, [r13, #32]
80005618:	ebfffb04 	bl	80004230 <trace_path>
8000561c:	e2504000 	subs	r4, r0, #0
80005620:	11a00004 	movne	r0, r4
80005624:	1afffff3 	bne	800055f8 <f_stat+0x2c>
80005628:	e59d1008 	ldr	r1, [r13, #8]
8000562c:	e3510000 	cmp	r1, #0
80005630:	03a00004 	moveq	r0, #4
80005634:	0affffef 	beq	800055f8 <f_stat+0x2c>
80005638:	e1a00005 	mov	r0, r5
8000563c:	ebfff8c9 	bl	80003968 <get_fileinfo>
80005640:	e1a00004 	mov	r0, r4
80005644:	e28dd034 	add	r13, r13, #52	; 0x34
80005648:	e8bd8030 	pop	{r4, r5, r15}

8000564c <f_getfree>:
8000564c:	e92d43f0 	push	{r4, r5, r6, r7, r8, r9, r14}
80005650:	e24dd014 	sub	r13, r13, #20
80005654:	e28d3010 	add	r3, r13, #16
80005658:	e1a05001 	mov	r5, r1
8000565c:	e1a04002 	mov	r4, r2
80005660:	e28d100c 	add	r1, r13, #12
80005664:	e523000c 	str	r0, [r3, #-12]!
80005668:	e3a02000 	mov	r2, #0
8000566c:	e1a00003 	mov	r0, r3
80005670:	ebfff9bb 	bl	80003d64 <auto_mount>
80005674:	e2503000 	subs	r3, r0, #0
80005678:	11a00003 	movne	r0, r3
8000567c:	1a000037 	bne	80005760 <f_getfree+0x114>
80005680:	e59d000c 	ldr	r0, [r13, #12]
80005684:	e590600c 	ldr	r6, [r0, #12]
80005688:	e5902020 	ldr	r2, [r0, #32]
8000568c:	e2461002 	sub	r1, r6, #2
80005690:	e5840000 	str	r0, [r4]
80005694:	e1520001 	cmp	r2, r1
80005698:	95852000 	strls	r2, [r5]
8000569c:	91a00003 	movls	r0, r3
800056a0:	9a00002e 	bls	80005760 <f_getfree+0x114>
800056a4:	e5d08024 	ldrb	r8, [r0, #36]	; 0x24
800056a8:	e3580001 	cmp	r8, #1
800056ac:	0a00002d 	beq	80005768 <f_getfree+0x11c>
800056b0:	e590e010 	ldr	r14, [r0, #16]
800056b4:	e1a04003 	mov	r4, r3
800056b8:	e1a07003 	mov	r7, r3
800056bc:	ea00000f 	b	80005700 <f_getfree+0xb4>
800056c0:	e3580002 	cmp	r8, #2
800056c4:	0a000019 	beq	80005730 <f_getfree+0xe4>
800056c8:	e5d3c002 	ldrb	r12, [r3, #2]
800056cc:	e2844002 	add	r4, r4, #2
800056d0:	e5d32003 	ldrb	r2, [r3, #3]
800056d4:	e2833004 	add	r3, r3, #4
800056d8:	e5531004 	ldrb	r1, [r3, #-4]
800056dc:	e6ef4074 	uxtb	r4, r4
800056e0:	e5539003 	ldrb	r9, [r3, #-3]
800056e4:	e1a0c80c 	lsl	r12, r12, #16
800056e8:	e18c2c02 	orr	r2, r12, r2, lsl #24
800056ec:	e1822001 	orr	r2, r2, r1
800056f0:	e1922409 	orrs	r2, r2, r9, lsl #8
800056f4:	02877001 	addeq	r7, r7, #1
800056f8:	e2566001 	subs	r6, r6, #1
800056fc:	0a000014 	beq	80005754 <f_getfree+0x108>
80005700:	e3540000 	cmp	r4, #0
80005704:	1affffed 	bne	800056c0 <f_getfree+0x74>
80005708:	e1a0100e 	mov	r1, r14
8000570c:	e28e9001 	add	r9, r14, #1
80005710:	ebfff8d9 	bl	80003a7c <move_window>
80005714:	e3500000 	cmp	r0, #0
80005718:	0a00001d 	beq	80005794 <f_getfree+0x148>
8000571c:	e59d000c 	ldr	r0, [r13, #12]
80005720:	e3580002 	cmp	r8, #2
80005724:	e1a0e009 	mov	r14, r9
80005728:	e2803040 	add	r3, r0, #64	; 0x40
8000572c:	1affffe5 	bne	800056c8 <f_getfree+0x7c>
80005730:	e5d31001 	ldrb	r1, [r3, #1]
80005734:	e2844001 	add	r4, r4, #1
80005738:	e5d32000 	ldrb	r2, [r3]
8000573c:	e2833002 	add	r3, r3, #2
80005740:	e6ef4074 	uxtb	r4, r4
80005744:	e1922401 	orrs	r2, r2, r1, lsl #8
80005748:	02877001 	addeq	r7, r7, #1
8000574c:	e2566001 	subs	r6, r6, #1
80005750:	1affffea 	bne	80005700 <f_getfree+0xb4>
80005754:	e5807020 	str	r7, [r0, #32]
80005758:	e3a00000 	mov	r0, #0
8000575c:	e5857000 	str	r7, [r5]
80005760:	e28dd014 	add	r13, r13, #20
80005764:	e8bd83f0 	pop	{r4, r5, r6, r7, r8, r9, r15}
80005768:	e1a07003 	mov	r7, r3
8000576c:	e3a04002 	mov	r4, #2
80005770:	e3540001 	cmp	r4, #1
80005774:	8a000008 	bhi	8000579c <f_getfree+0x150>
80005778:	e2844001 	add	r4, r4, #1
8000577c:	e1540006 	cmp	r4, r6
80005780:	3afffffa 	bcc	80005770 <f_getfree+0x124>
80005784:	e5807020 	str	r7, [r0, #32]
80005788:	e3a00000 	mov	r0, #0
8000578c:	e5857000 	str	r7, [r5]
80005790:	eafffff2 	b	80005760 <f_getfree+0x114>
80005794:	e3a00008 	mov	r0, #8
80005798:	eafffff0 	b	80005760 <f_getfree+0x114>
8000579c:	e1540006 	cmp	r4, r6
800057a0:	2afffff4 	bcs	80005778 <f_getfree+0x12c>
800057a4:	e1a01004 	mov	r1, r4
800057a8:	ebfffa2c 	bl	80004060 <get_cluster.part.2>
800057ac:	e6ff0070 	uxth	r0, r0
800057b0:	e3500000 	cmp	r0, #0
800057b4:	e59d000c 	ldr	r0, [r13, #12]
800057b8:	02877001 	addeq	r7, r7, #1
800057bc:	e590600c 	ldr	r6, [r0, #12]
800057c0:	eaffffec 	b	80005778 <f_getfree+0x12c>

800057c4 <f_unlink>:
800057c4:	e92d4030 	push	{r4, r5, r14}
800057c8:	e24dd034 	sub	r13, r13, #52	; 0x34
800057cc:	e28d3030 	add	r3, r13, #48	; 0x30
800057d0:	e28d100c 	add	r1, r13, #12
800057d4:	e3a02001 	mov	r2, #1
800057d8:	e523002c 	str	r0, [r3, #-44]!	; 0xffffffd4
800057dc:	e1a00003 	mov	r0, r3
800057e0:	ebfff95f 	bl	80003d64 <auto_mount>
800057e4:	e3500000 	cmp	r0, #0
800057e8:	0a000001 	beq	800057f4 <f_unlink+0x30>
800057ec:	e28dd034 	add	r13, r13, #52	; 0x34
800057f0:	e8bd8030 	pop	{r4, r5, r15}
800057f4:	e59dc00c 	ldr	r12, [r13, #12]
800057f8:	e28d1010 	add	r1, r13, #16
800057fc:	e59d2004 	ldr	r2, [r13, #4]
80005800:	e28d001c 	add	r0, r13, #28
80005804:	e28d3008 	add	r3, r13, #8
80005808:	e58dc020 	str	r12, [r13, #32]
8000580c:	ebfffa87 	bl	80004230 <trace_path>
80005810:	e3500000 	cmp	r0, #0
80005814:	1afffff4 	bne	800057ec <f_unlink+0x28>
80005818:	e59d3008 	ldr	r3, [r13, #8]
8000581c:	e3530000 	cmp	r3, #0
80005820:	03a00004 	moveq	r0, #4
80005824:	0afffff0 	beq	800057ec <f_unlink+0x28>
80005828:	e5d3200b 	ldrb	r2, [r3, #11]
8000582c:	e2121001 	ands	r1, r2, #1
80005830:	0a000002 	beq	80005840 <f_unlink+0x7c>
80005834:	e3a00006 	mov	r0, #6
80005838:	e28dd034 	add	r13, r13, #52	; 0x34
8000583c:	e8bd8030 	pop	{r4, r5, r15}
80005840:	e5d34015 	ldrb	r4, [r3, #21]
80005844:	e3120010 	tst	r2, #16
80005848:	e5d32014 	ldrb	r2, [r3, #20]
8000584c:	e5d3c01b 	ldrb	r12, [r3, #27]
80005850:	e1820404 	orr	r0, r2, r4, lsl #8
80005854:	e5d3301a 	ldrb	r3, [r3, #26]
80005858:	e59d200c 	ldr	r2, [r13, #12]
8000585c:	e183340c 	orr	r3, r3, r12, lsl #8
80005860:	e1834800 	orr	r4, r3, r0, lsl #16
80005864:	e5925004 	ldr	r5, [r2, #4]
80005868:	0a000025 	beq	80005904 <f_unlink+0x140>
8000586c:	e592300c 	ldr	r3, [r2, #12]
80005870:	e2440002 	sub	r0, r4, #2
80005874:	e58d4028 	str	r4, [r13, #40]	; 0x28
80005878:	e2433002 	sub	r3, r3, #2
8000587c:	e1500003 	cmp	r0, r3
80005880:	35d23025 	ldrbcc	r3, [r2, #37]	; 0x25
80005884:	35921018 	ldrcc	r1, [r2, #24]
80005888:	30211093 	mlacc	r1, r3, r0, r1
8000588c:	e3a03002 	mov	r3, #2
80005890:	e1cd31be 	strh	r3, [r13, #30]
80005894:	e58d102c 	str	r1, [r13, #44]	; 0x2c
80005898:	ea000013 	b	800058ec <f_unlink+0x128>
8000589c:	e1dd31be 	ldrh	r3, [r13, #30]
800058a0:	e59d200c 	ldr	r2, [r13, #12]
800058a4:	e203300f 	and	r3, r3, #15
800058a8:	e1a03283 	lsl	r3, r3, #5
800058ac:	e0821003 	add	r1, r2, r3
800058b0:	e2833040 	add	r3, r3, #64	; 0x40
800058b4:	e0823003 	add	r3, r2, r3
800058b8:	e5d11040 	ldrb	r1, [r1, #64]	; 0x40
800058bc:	e3510000 	cmp	r1, #0
800058c0:	0a00000f 	beq	80005904 <f_unlink+0x140>
800058c4:	e35100e5 	cmp	r1, #229	; 0xe5
800058c8:	0a000002 	beq	800058d8 <f_unlink+0x114>
800058cc:	e5d3300b 	ldrb	r3, [r3, #11]
800058d0:	e3130008 	tst	r3, #8
800058d4:	0affffd6 	beq	80005834 <f_unlink+0x70>
800058d8:	ebfffa24 	bl	80004170 <next_dir_entry>
800058dc:	e59d200c 	ldr	r2, [r13, #12]
800058e0:	e3500000 	cmp	r0, #0
800058e4:	0a000006 	beq	80005904 <f_unlink+0x140>
800058e8:	e59d102c 	ldr	r1, [r13, #44]	; 0x2c
800058ec:	e1a00002 	mov	r0, r2
800058f0:	ebfff861 	bl	80003a7c <move_window>
800058f4:	e3500000 	cmp	r0, #0
800058f8:	e28d001c 	add	r0, r13, #28
800058fc:	1affffe6 	bne	8000589c <f_unlink+0xd8>
80005900:	ea000004 	b	80005918 <f_unlink+0x154>
80005904:	e1a00002 	mov	r0, r2
80005908:	e1a01005 	mov	r1, r5
8000590c:	ebfff85a 	bl	80003a7c <move_window>
80005910:	e3500000 	cmp	r0, #0
80005914:	1a000001 	bne	80005920 <f_unlink+0x15c>
80005918:	e3a00008 	mov	r0, #8
8000591c:	eaffffb2 	b	800057ec <f_unlink+0x28>
80005920:	e59d2008 	ldr	r2, [r13, #8]
80005924:	e3e0001a 	mvn	r0, #26
80005928:	e3a03001 	mov	r3, #1
8000592c:	e1a01004 	mov	r1, r4
80005930:	e5c20000 	strb	r0, [r2]
80005934:	e59d000c 	ldr	r0, [r13, #12]
80005938:	e5c03028 	strb	r3, [r0, #40]	; 0x28
8000593c:	ebfffbae 	bl	800047fc <remove_chain.constprop.4>
80005940:	e3500000 	cmp	r0, #0
80005944:	0afffff3 	beq	80005918 <f_unlink+0x154>
80005948:	e59d000c 	ldr	r0, [r13, #12]
8000594c:	ebfffb99 	bl	800047b8 <sync>
80005950:	eaffffa5 	b	800057ec <f_unlink+0x28>

80005954 <f_mkdir>:
80005954:	e92d4ff0 	push	{r4, r5, r6, r7, r8, r9, r10, r11, r14}
80005958:	e24dd03c 	sub	r13, r13, #60	; 0x3c
8000595c:	e28d3038 	add	r3, r13, #56	; 0x38
80005960:	e28d1014 	add	r1, r13, #20
80005964:	e3a02001 	mov	r2, #1
80005968:	e523002c 	str	r0, [r3, #-44]!	; 0xffffffd4
8000596c:	e1a00003 	mov	r0, r3
80005970:	ebfff8fb 	bl	80003d64 <auto_mount>
80005974:	e3500000 	cmp	r0, #0
80005978:	0a000001 	beq	80005984 <f_mkdir+0x30>
8000597c:	e28dd03c 	add	r13, r13, #60	; 0x3c
80005980:	e8bd8ff0 	pop	{r4, r5, r6, r7, r8, r9, r10, r11, r15}
80005984:	e59dc014 	ldr	r12, [r13, #20]
80005988:	e28d0024 	add	r0, r13, #36	; 0x24
8000598c:	e59d200c 	ldr	r2, [r13, #12]
80005990:	e28d1018 	add	r1, r13, #24
80005994:	e28d3010 	add	r3, r13, #16
80005998:	e58dc028 	str	r12, [r13, #40]	; 0x28
8000599c:	ebfffa23 	bl	80004230 <trace_path>
800059a0:	e3500000 	cmp	r0, #0
800059a4:	03a00007 	moveq	r0, #7
800059a8:	0afffff3 	beq	8000597c <f_mkdir+0x28>
800059ac:	e3500002 	cmp	r0, #2
800059b0:	1afffff1 	bne	8000597c <f_mkdir+0x28>
800059b4:	e28d0024 	add	r0, r13, #36	; 0x24
800059b8:	e28d1010 	add	r1, r13, #16
800059bc:	ebfffb1b 	bl	80004630 <reserve_direntry>
800059c0:	e2506000 	subs	r6, r0, #0
800059c4:	11a00006 	movne	r0, r6
800059c8:	1affffeb 	bne	8000597c <f_mkdir+0x28>
800059cc:	e59d3014 	ldr	r3, [r13, #20]
800059d0:	e1a01006 	mov	r1, r6
800059d4:	e1a00003 	mov	r0, r3
800059d8:	e5935004 	ldr	r5, [r3, #4]
800059dc:	ebffface 	bl	8000451c <create_chain>
800059e0:	e3500001 	cmp	r0, #1
800059e4:	e1a04000 	mov	r4, r0
800059e8:	0a000029 	beq	80005a94 <f_mkdir+0x140>
800059ec:	e59d0014 	ldr	r0, [r13, #20]
800059f0:	e2442002 	sub	r2, r4, #2
800059f4:	e590300c 	ldr	r3, [r0, #12]
800059f8:	e2433002 	sub	r3, r3, #2
800059fc:	e1520003 	cmp	r2, r3
80005a00:	2a000003 	bcs	80005a14 <f_mkdir+0xc0>
80005a04:	e5d07025 	ldrb	r7, [r0, #37]	; 0x25
80005a08:	e5903018 	ldr	r3, [r0, #24]
80005a0c:	e0373792 	mlas	r7, r2, r7, r3
80005a10:	1a000001 	bne	80005a1c <f_mkdir+0xc8>
80005a14:	e3a00006 	mov	r0, #6
80005a18:	eaffffd7 	b	8000597c <f_mkdir+0x28>
80005a1c:	e1a01007 	mov	r1, r7
80005a20:	ebfff815 	bl	80003a7c <move_window>
80005a24:	e3500000 	cmp	r0, #0
80005a28:	0a000019 	beq	80005a94 <f_mkdir+0x140>
80005a2c:	e59d8014 	ldr	r8, [r13, #20]
80005a30:	e1a01006 	mov	r1, r6
80005a34:	e3a02c02 	mov	r2, #512	; 0x200
80005a38:	e2889040 	add	r9, r8, #64	; 0x40
80005a3c:	e1a00009 	mov	r0, r9
80005a40:	ebffeddb 	bl	800011b4 <memset>
80005a44:	e59d3014 	ldr	r3, [r13, #20]
80005a48:	e5d32025 	ldrb	r2, [r3, #37]	; 0x25
80005a4c:	e3520001 	cmp	r2, #1
80005a50:	83a06001 	movhi	r6, #1
80005a54:	8a000004 	bhi	80005a6c <f_mkdir+0x118>
80005a58:	ea00000f 	b	80005a9c <f_mkdir+0x148>
80005a5c:	e59d3014 	ldr	r3, [r13, #20]
80005a60:	e5d32025 	ldrb	r2, [r3, #37]	; 0x25
80005a64:	e1520006 	cmp	r2, r6
80005a68:	9a00000b 	bls	80005a9c <f_mkdir+0x148>
80005a6c:	e2877001 	add	r7, r7, #1
80005a70:	e5d30027 	ldrb	r0, [r3, #39]	; 0x27
80005a74:	e1a01009 	mov	r1, r9
80005a78:	e3a03001 	mov	r3, #1
80005a7c:	e1a02007 	mov	r2, r7
80005a80:	e2866001 	add	r6, r6, #1
80005a84:	ebfff761 	bl	80003810 <disk_write>
80005a88:	e6ef6076 	uxtb	r6, r6
80005a8c:	e3500000 	cmp	r0, #0
80005a90:	0afffff1 	beq	80005a5c <f_mkdir+0x108>
80005a94:	e3a00008 	mov	r0, #8
80005a98:	eaffffb7 	b	8000597c <f_mkdir+0x28>
80005a9c:	e3a01020 	mov	r1, #32
80005aa0:	e3a0200b 	mov	r2, #11
80005aa4:	e1a00009 	mov	r0, r9
80005aa8:	e3a0b02e 	mov	r11, #46	; 0x2e
80005aac:	ebffedc0 	bl	800011b4 <memset>
80005ab0:	e3a07010 	mov	r7, #16
80005ab4:	e5c8b040 	strb	r11, [r8, #64]	; 0x40
80005ab8:	e6ef3074 	uxtb	r3, r4
80005abc:	e5c8704b 	strb	r7, [r8, #75]	; 0x4b
80005ac0:	e58d3004 	str	r3, [r13, #4]
80005ac4:	ebfff774 	bl	8000389c <get_fattime>
80005ac8:	e1a01009 	mov	r1, r9
80005acc:	e6ef2070 	uxtb	r2, r0
80005ad0:	e7e7a450 	ubfx	r10, r0, #8, #8
80005ad4:	e58d2008 	str	r2, [r13, #8]
80005ad8:	e7e79850 	ubfx	r9, r0, #16, #8
80005adc:	e5c82056 	strb	r2, [r8, #86]	; 0x56
80005ae0:	e1a06c20 	lsr	r6, r0, #24
80005ae4:	e3a02020 	mov	r2, #32
80005ae8:	e5c8a057 	strb	r10, [r8, #87]	; 0x57
80005aec:	e5c89058 	strb	r9, [r8, #88]	; 0x58
80005af0:	e2880060 	add	r0, r8, #96	; 0x60
80005af4:	e5c86059 	strb	r6, [r8, #89]	; 0x59
80005af8:	ebffeda4 	bl	80001190 <memcpy>
80005afc:	e59d202c 	ldr	r2, [r13, #44]	; 0x2c
80005b00:	e59d3014 	ldr	r3, [r13, #20]
80005b04:	e1a01005 	mov	r1, r5
80005b08:	e7e70452 	ubfx	r0, r2, #8, #8
80005b0c:	e5c8007b 	strb	r0, [r8, #123]	; 0x7b
80005b10:	e5dd0004 	ldrb	r0, [r13, #4]
80005b14:	e7e75454 	ubfx	r5, r4, #8, #8
80005b18:	e5c8207a 	strb	r2, [r8, #122]	; 0x7a
80005b1c:	e3a02001 	mov	r2, #1
80005b20:	e5c8b061 	strb	r11, [r8, #97]	; 0x61
80005b24:	e5c8005a 	strb	r0, [r8, #90]	; 0x5a
80005b28:	e1a00003 	mov	r0, r3
80005b2c:	e5c8505b 	strb	r5, [r8, #91]	; 0x5b
80005b30:	e5c32028 	strb	r2, [r3, #40]	; 0x28
80005b34:	ebfff7d0 	bl	80003a7c <move_window>
80005b38:	e3500000 	cmp	r0, #0
80005b3c:	0affffd4 	beq	80005a94 <f_mkdir+0x140>
80005b40:	e59d0010 	ldr	r0, [r13, #16]
80005b44:	e3a01000 	mov	r1, #0
80005b48:	e3a02020 	mov	r2, #32
80005b4c:	e1a04824 	lsr	r4, r4, #16
80005b50:	ebffed97 	bl	800011b4 <memset>
80005b54:	e28d1018 	add	r1, r13, #24
80005b58:	e59d0010 	ldr	r0, [r13, #16]
80005b5c:	e3a0200b 	mov	r2, #11
80005b60:	ebffed8a 	bl	80001190 <memcpy>
80005b64:	e59d3010 	ldr	r3, [r13, #16]
80005b68:	e5dd2023 	ldrb	r2, [r13, #35]	; 0x23
80005b6c:	e1a01424 	lsr	r1, r4, #8
80005b70:	e5ddc004 	ldrb	r12, [r13, #4]
80005b74:	e59d0014 	ldr	r0, [r13, #20]
80005b78:	e5c3200c 	strb	r2, [r3, #12]
80005b7c:	e5dd2008 	ldrb	r2, [r13, #8]
80005b80:	e5c3a017 	strb	r10, [r3, #23]
80005b84:	e5c39018 	strb	r9, [r3, #24]
80005b88:	e5c36019 	strb	r6, [r3, #25]
80005b8c:	e5c3c01a 	strb	r12, [r3, #26]
80005b90:	e5c3501b 	strb	r5, [r3, #27]
80005b94:	e5c31015 	strb	r1, [r3, #21]
80005b98:	e5c3700b 	strb	r7, [r3, #11]
80005b9c:	e5c32016 	strb	r2, [r3, #22]
80005ba0:	e5c34014 	strb	r4, [r3, #20]
80005ba4:	ebfffb03 	bl	800047b8 <sync>
80005ba8:	eaffff73 	b	8000597c <f_mkdir+0x28>

80005bac <f_chmod>:
80005bac:	e92d4030 	push	{r4, r5, r14}
80005bb0:	e24dd034 	sub	r13, r13, #52	; 0x34
80005bb4:	e28d3030 	add	r3, r13, #48	; 0x30
80005bb8:	e1a04001 	mov	r4, r1
80005bbc:	e1a05002 	mov	r5, r2
80005bc0:	e28d100c 	add	r1, r13, #12
80005bc4:	e523002c 	str	r0, [r3, #-44]!	; 0xffffffd4
80005bc8:	e3a02001 	mov	r2, #1
80005bcc:	e1a00003 	mov	r0, r3
80005bd0:	ebfff863 	bl	80003d64 <auto_mount>
80005bd4:	e3500000 	cmp	r0, #0
80005bd8:	0a000001 	beq	80005be4 <f_chmod+0x38>
80005bdc:	e28dd034 	add	r13, r13, #52	; 0x34
80005be0:	e8bd8030 	pop	{r4, r5, r15}
80005be4:	e59dc00c 	ldr	r12, [r13, #12]
80005be8:	e28d001c 	add	r0, r13, #28
80005bec:	e28d1010 	add	r1, r13, #16
80005bf0:	e59d2004 	ldr	r2, [r13, #4]
80005bf4:	e28d3008 	add	r3, r13, #8
80005bf8:	e58dc020 	str	r12, [r13, #32]
80005bfc:	ebfff98b 	bl	80004230 <trace_path>
80005c00:	e3500000 	cmp	r0, #0
80005c04:	1afffff4 	bne	80005bdc <f_chmod+0x30>
80005c08:	e59d3008 	ldr	r3, [r13, #8]
80005c0c:	e3530000 	cmp	r3, #0
80005c10:	03a00004 	moveq	r0, #4
80005c14:	0afffff0 	beq	80005bdc <f_chmod+0x30>
80005c18:	e5d3200b 	ldrb	r2, [r3, #11]
80005c1c:	e2055027 	and	r5, r5, #39	; 0x27
80005c20:	e0044005 	and	r4, r4, r5
80005c24:	e59d000c 	ldr	r0, [r13, #12]
80005c28:	e1c25005 	bic	r5, r2, r5
80005c2c:	e1854004 	orr	r4, r5, r4
80005c30:	e5c3400b 	strb	r4, [r3, #11]
80005c34:	ebfffadf 	bl	800047b8 <sync>
80005c38:	e28dd034 	add	r13, r13, #52	; 0x34
80005c3c:	e8bd8030 	pop	{r4, r5, r15}

80005c40 <f_rename>:
80005c40:	e92d4030 	push	{r4, r5, r14}
80005c44:	e24dd054 	sub	r13, r13, #84	; 0x54
80005c48:	e28d3050 	add	r3, r13, #80	; 0x50
80005c4c:	e1a04001 	mov	r4, r1
80005c50:	e3a02001 	mov	r2, #1
80005c54:	e28d1014 	add	r1, r13, #20
80005c58:	e523004c 	str	r0, [r3, #-76]!	; 0xffffffb4
80005c5c:	e1a00003 	mov	r0, r3
80005c60:	ebfff83f 	bl	80003d64 <auto_mount>
80005c64:	e3500000 	cmp	r0, #0
80005c68:	0a000001 	beq	80005c74 <f_rename+0x34>
80005c6c:	e28dd054 	add	r13, r13, #84	; 0x54
80005c70:	e8bd8030 	pop	{r4, r5, r15}
80005c74:	e59dc014 	ldr	r12, [r13, #20]
80005c78:	e28d0024 	add	r0, r13, #36	; 0x24
80005c7c:	e59d2004 	ldr	r2, [r13, #4]
80005c80:	e28d300c 	add	r3, r13, #12
80005c84:	e28d1018 	add	r1, r13, #24
80005c88:	e58dc028 	str	r12, [r13, #40]	; 0x28
80005c8c:	ebfff967 	bl	80004230 <trace_path>
80005c90:	e3500000 	cmp	r0, #0
80005c94:	1afffff4 	bne	80005c6c <f_rename+0x2c>
80005c98:	e59d100c 	ldr	r1, [r13, #12]
80005c9c:	e3510000 	cmp	r1, #0
80005ca0:	03a00002 	moveq	r0, #2
80005ca4:	0afffff0 	beq	80005c6c <f_rename+0x2c>
80005ca8:	e59d3014 	ldr	r3, [r13, #20]
80005cac:	e281100b 	add	r1, r1, #11
80005cb0:	e3a02015 	mov	r2, #21
80005cb4:	e28d0038 	add	r0, r13, #56	; 0x38
80005cb8:	e5935004 	ldr	r5, [r3, #4]
80005cbc:	ebffed33 	bl	80001190 <memcpy>
80005cc0:	e1a02004 	mov	r2, r4
80005cc4:	e28d3010 	add	r3, r13, #16
80005cc8:	e28d0024 	add	r0, r13, #36	; 0x24
80005ccc:	e28d1018 	add	r1, r13, #24
80005cd0:	ebfff956 	bl	80004230 <trace_path>
80005cd4:	e3500000 	cmp	r0, #0
80005cd8:	03a00007 	moveq	r0, #7
80005cdc:	0affffe2 	beq	80005c6c <f_rename+0x2c>
80005ce0:	e3500002 	cmp	r0, #2
80005ce4:	1affffe0 	bne	80005c6c <f_rename+0x2c>
80005ce8:	e28d0024 	add	r0, r13, #36	; 0x24
80005cec:	e28d1010 	add	r1, r13, #16
80005cf0:	ebfffa4e 	bl	80004630 <reserve_direntry>
80005cf4:	e3500000 	cmp	r0, #0
80005cf8:	1affffdb 	bne	80005c6c <f_rename+0x2c>
80005cfc:	e59d0010 	ldr	r0, [r13, #16]
80005d00:	e28d1038 	add	r1, r13, #56	; 0x38
80005d04:	e3a02015 	mov	r2, #21
80005d08:	e280000b 	add	r0, r0, #11
80005d0c:	ebffed1f 	bl	80001190 <memcpy>
80005d10:	e28d1018 	add	r1, r13, #24
80005d14:	e3a0200b 	mov	r2, #11
80005d18:	e59d0010 	ldr	r0, [r13, #16]
80005d1c:	ebffed1b 	bl	80001190 <memcpy>
80005d20:	e59d0010 	ldr	r0, [r13, #16]
80005d24:	e59d3014 	ldr	r3, [r13, #20]
80005d28:	e3a02001 	mov	r2, #1
80005d2c:	e5ddc023 	ldrb	r12, [r13, #35]	; 0x23
80005d30:	e1a01005 	mov	r1, r5
80005d34:	e5c0c00c 	strb	r12, [r0, #12]
80005d38:	e1a00003 	mov	r0, r3
80005d3c:	e5c32028 	strb	r2, [r3, #40]	; 0x28
80005d40:	ebfff74d 	bl	80003a7c <move_window>
80005d44:	e3500000 	cmp	r0, #0
80005d48:	03a00008 	moveq	r0, #8
80005d4c:	0affffc6 	beq	80005c6c <f_rename+0x2c>
80005d50:	e59d300c 	ldr	r3, [r13, #12]
80005d54:	e3e0201a 	mvn	r2, #26
80005d58:	e5c32000 	strb	r2, [r3]
80005d5c:	e59d0014 	ldr	r0, [r13, #20]
80005d60:	ebfffa94 	bl	800047b8 <sync>
80005d64:	eaffffc0 	b	80005c6c <f_rename+0x2c>

80005d68 <Cmd_pwd>:
80005d68:	e30704bc 	movw	r0, #29884	; 0x74bc
80005d6c:	e30718c4 	movw	r1, #30916	; 0x78c4
80005d70:	e92d4008 	push	{r3, r14}
80005d74:	e3480000 	movt	r0, #32768	; 0x8000
80005d78:	e3481000 	movt	r1, #32768	; 0x8000
80005d7c:	ebffedc4 	bl	80001494 <ConsolePrintf>
80005d80:	e3a00000 	mov	r0, #0
80005d84:	e8bd8008 	pop	{r3, r15}

80005d88 <Cmd_help>:
80005d88:	e307041c 	movw	r0, #29724	; 0x741c
80005d8c:	e92d4010 	push	{r4, r14}
80005d90:	e3480000 	movt	r0, #32768	; 0x8000
80005d94:	ebffedbe 	bl	80001494 <ConsolePrintf>
80005d98:	e30748c4 	movw	r4, #30916	; 0x78c4
80005d9c:	e307042c 	movw	r0, #29740	; 0x742c
80005da0:	e3484000 	movt	r4, #32768	; 0x8000
80005da4:	e3480000 	movt	r0, #32768	; 0x8000
80005da8:	ebffedb9 	bl	80001494 <ConsolePrintf>
80005dac:	e5941200 	ldr	r1, [r4, #512]	; 0x200
80005db0:	e3510000 	cmp	r1, #0
80005db4:	0a000007 	beq	80005dd8 <Cmd_help+0x50>
80005db8:	e2844c02 	add	r4, r4, #512	; 0x200
80005dbc:	e307043c 	movw	r0, #29756	; 0x743c
80005dc0:	e5942008 	ldr	r2, [r4, #8]
80005dc4:	e3480000 	movt	r0, #32768	; 0x8000
80005dc8:	ebffedb1 	bl	80001494 <ConsolePrintf>
80005dcc:	e5b4100c 	ldr	r1, [r4, #12]!
80005dd0:	e3510000 	cmp	r1, #0
80005dd4:	1afffff8 	bne	80005dbc <Cmd_help+0x34>
80005dd8:	e3a00000 	mov	r0, #0
80005ddc:	e8bd8010 	pop	{r4, r15}

80005de0 <Cmd_rm>:
80005de0:	e92d40f8 	push	{r3, r4, r5, r6, r7, r14}
80005de4:	e1a06001 	mov	r6, r1
80005de8:	e5915004 	ldr	r5, [r1, #4]
80005dec:	e5d53000 	ldrb	r3, [r5]
80005df0:	e353002f 	cmp	r3, #47	; 0x2f
80005df4:	0a000028 	beq	80005e9c <Cmd_rm+0xbc>
80005df8:	e30c4100 	movw	r4, #49408	; 0xc100
80005dfc:	e30718c4 	movw	r1, #30916	; 0x78c4
80005e00:	e3484000 	movt	r4, #32768	; 0x8000
80005e04:	e3481000 	movt	r1, #32768	; 0x8000
80005e08:	e1a00004 	mov	r0, r4
80005e0c:	ebffed44 	bl	80001324 <strcpy>
80005e10:	e1a00004 	mov	r0, r4
80005e14:	ebffed5e 	bl	80001394 <strlen>
80005e18:	e5967004 	ldr	r7, [r6, #4]
80005e1c:	e1a05000 	mov	r5, r0
80005e20:	e1a00007 	mov	r0, r7
80005e24:	ebffed5a 	bl	80001394 <strlen>
80005e28:	e0850000 	add	r0, r5, r0
80005e2c:	e2805002 	add	r5, r0, #2
80005e30:	e3550c02 	cmp	r5, #512	; 0x200
80005e34:	8a00003c 	bhi	80005f2c <Cmd_rm+0x14c>
80005e38:	e5d43000 	ldrb	r3, [r4]
80005e3c:	e353002f 	cmp	r3, #47	; 0x2f
80005e40:	0a000035 	beq	80005f1c <Cmd_rm+0x13c>
80005e44:	e30c0100 	movw	r0, #49408	; 0xc100
80005e48:	e30714ac 	movw	r1, #29868	; 0x74ac
80005e4c:	e3480000 	movt	r0, #32768	; 0x8000
80005e50:	e3481000 	movt	r1, #32768	; 0x8000
80005e54:	ebffecdf 	bl	800011d8 <strcat>
80005e58:	e5967004 	ldr	r7, [r6, #4]
80005e5c:	e30c0100 	movw	r0, #49408	; 0xc100
80005e60:	e1a01007 	mov	r1, r7
80005e64:	e3480000 	movt	r0, #32768	; 0x8000
80005e68:	ebffecda 	bl	800011d8 <strcat>
80005e6c:	e30c0100 	movw	r0, #49408	; 0xc100
80005e70:	e3480000 	movt	r0, #32768	; 0x8000
80005e74:	ebfffe52 	bl	800057c4 <f_unlink>
80005e78:	e2504000 	subs	r4, r0, #0
80005e7c:	0a000004 	beq	80005e94 <Cmd_rm+0xb4>
80005e80:	e30704b0 	movw	r0, #29872	; 0x74b0
80005e84:	e30718c4 	movw	r1, #30916	; 0x78c4
80005e88:	e3480000 	movt	r0, #32768	; 0x8000
80005e8c:	e3481000 	movt	r1, #32768	; 0x8000
80005e90:	ebffed7f 	bl	80001494 <ConsolePrintf>
80005e94:	e1a00004 	mov	r0, r4
80005e98:	e8bd80f8 	pop	{r3, r4, r5, r6, r7, r15}
80005e9c:	e1a00005 	mov	r0, r5
80005ea0:	ebffed3b 	bl	80001394 <strlen>
80005ea4:	e2803001 	add	r3, r0, #1
80005ea8:	e1a07000 	mov	r7, r0
80005eac:	e3530c02 	cmp	r3, #512	; 0x200
80005eb0:	8a000023 	bhi	80005f44 <Cmd_rm+0x164>
80005eb4:	e30768c4 	movw	r6, #30916	; 0x78c4
80005eb8:	e3486000 	movt	r6, #32768	; 0x8000
80005ebc:	e1a00006 	mov	r0, r6
80005ec0:	ebffed33 	bl	80001394 <strlen>
80005ec4:	e1570000 	cmp	r7, r0
80005ec8:	8a00000d 	bhi	80005f04 <Cmd_rm+0x124>
80005ecc:	e1a00006 	mov	r0, r6
80005ed0:	e1a01005 	mov	r1, r5
80005ed4:	e1a02007 	mov	r2, r7
80005ed8:	ebffecf6 	bl	800012b8 <strncmp>
80005edc:	e2504000 	subs	r4, r0, #0
80005ee0:	1a000007 	bne	80005f04 <Cmd_rm+0x124>
80005ee4:	e7d63007 	ldrb	r3, [r6, r7]
80005ee8:	e3530000 	cmp	r3, #0
80005eec:	1353002f 	cmpne	r3, #47	; 0x2f
80005ef0:	1a000003 	bne	80005f04 <Cmd_rm+0x124>
80005ef4:	e3070464 	movw	r0, #29796	; 0x7464
80005ef8:	e3480000 	movt	r0, #32768	; 0x8000
80005efc:	ebffed64 	bl	80001494 <ConsolePrintf>
80005f00:	eaffffe3 	b	80005e94 <Cmd_rm+0xb4>
80005f04:	e30c0100 	movw	r0, #49408	; 0xc100
80005f08:	e1a01005 	mov	r1, r5
80005f0c:	e30021ff 	movw	r2, #511	; 0x1ff
80005f10:	e3480000 	movt	r0, #32768	; 0x8000
80005f14:	ebffed15 	bl	80001370 <strncpy>
80005f18:	eaffffd3 	b	80005e6c <Cmd_rm+0x8c>
80005f1c:	e5d43001 	ldrb	r3, [r4, #1]
80005f20:	e3530000 	cmp	r3, #0
80005f24:	0affffcc 	beq	80005e5c <Cmd_rm+0x7c>
80005f28:	eaffffc5 	b	80005e44 <Cmd_rm+0x64>
80005f2c:	e3070488 	movw	r0, #29832	; 0x7488
80005f30:	e3a04000 	mov	r4, #0
80005f34:	e3480000 	movt	r0, #32768	; 0x8000
80005f38:	ebffed55 	bl	80001494 <ConsolePrintf>
80005f3c:	e1a00004 	mov	r0, r4
80005f40:	e8bd80f8 	pop	{r3, r4, r5, r6, r7, r15}
80005f44:	e3070444 	movw	r0, #29764	; 0x7444
80005f48:	e3a04000 	mov	r4, #0
80005f4c:	e3480000 	movt	r0, #32768	; 0x8000
80005f50:	ebffed4f 	bl	80001494 <ConsolePrintf>
80005f54:	e1a00004 	mov	r0, r4
80005f58:	e8bd80f8 	pop	{r3, r4, r5, r6, r7, r15}

80005f5c <Cmd_cd>:
80005f5c:	e92d40f8 	push	{r3, r4, r5, r6, r7, r14}
80005f60:	e30c4100 	movw	r4, #49408	; 0xc100
80005f64:	e1a06001 	mov	r6, r1
80005f68:	e3484000 	movt	r4, #32768	; 0x8000
80005f6c:	e30718c4 	movw	r1, #30916	; 0x78c4
80005f70:	e1a00004 	mov	r0, r4
80005f74:	e3481000 	movt	r1, #32768	; 0x8000
80005f78:	ebffece9 	bl	80001324 <strcpy>
80005f7c:	e5965004 	ldr	r5, [r6, #4]
80005f80:	e5d53000 	ldrb	r3, [r5]
80005f84:	e353002f 	cmp	r3, #47	; 0x2f
80005f88:	0a00002d 	beq	80006044 <Cmd_cd+0xe8>
80005f8c:	e353002e 	cmp	r3, #46	; 0x2e
80005f90:	0a000015 	beq	80005fec <Cmd_cd+0x90>
80005f94:	e30c7100 	movw	r7, #49408	; 0xc100
80005f98:	e3487000 	movt	r7, #32768	; 0x8000
80005f9c:	e1a00007 	mov	r0, r7
80005fa0:	ebffecfb 	bl	80001394 <strlen>
80005fa4:	e1a04000 	mov	r4, r0
80005fa8:	e1a00005 	mov	r0, r5
80005fac:	ebffecf8 	bl	80001394 <strlen>
80005fb0:	e0840000 	add	r0, r4, r0
80005fb4:	e2804002 	add	r4, r0, #2
80005fb8:	e3540c02 	cmp	r4, #512	; 0x200
80005fbc:	8a00003d 	bhi	800060b8 <Cmd_cd+0x15c>
80005fc0:	e5d73000 	ldrb	r3, [r7]
80005fc4:	e353002f 	cmp	r3, #47	; 0x2f
80005fc8:	1a000033 	bne	8000609c <Cmd_cd+0x140>
80005fcc:	e5d73001 	ldrb	r3, [r7, #1]
80005fd0:	e3530000 	cmp	r3, #0
80005fd4:	1a000030 	bne	8000609c <Cmd_cd+0x140>
80005fd8:	e30c0100 	movw	r0, #49408	; 0xc100
80005fdc:	e1a01005 	mov	r1, r5
80005fe0:	e3480000 	movt	r0, #32768	; 0x8000
80005fe4:	ebffec7b 	bl	800011d8 <strcat>
80005fe8:	ea00001e 	b	80006068 <Cmd_cd+0x10c>
80005fec:	e5d53001 	ldrb	r3, [r5, #1]
80005ff0:	e353002e 	cmp	r3, #46	; 0x2e
80005ff4:	1affffe6 	bne	80005f94 <Cmd_cd+0x38>
80005ff8:	e5d53002 	ldrb	r3, [r5, #2]
80005ffc:	e3530000 	cmp	r3, #0
80006000:	1affffe3 	bne	80005f94 <Cmd_cd+0x38>
80006004:	e1a00004 	mov	r0, r4
80006008:	ebffece1 	bl	80001394 <strlen>
8000600c:	e2400001 	sub	r0, r0, #1
80006010:	e7d42000 	ldrb	r2, [r4, r0]
80006014:	e352002f 	cmp	r2, #47	; 0x2f
80006018:	13500001 	cmpne	r0, #1
8000601c:	9a000005 	bls	80006038 <Cmd_cd+0xdc>
80006020:	e0842000 	add	r2, r4, r0
80006024:	e5721001 	ldrb	r1, [r2, #-1]!
80006028:	e2400001 	sub	r0, r0, #1
8000602c:	e351002f 	cmp	r1, #47	; 0x2f
80006030:	13500001 	cmpne	r0, #1
80006034:	8afffffa 	bhi	80006024 <Cmd_cd+0xc8>
80006038:	e3a02000 	mov	r2, #0
8000603c:	e7c42000 	strb	r2, [r4, r0]
80006040:	ea000008 	b	80006068 <Cmd_cd+0x10c>
80006044:	e1a00005 	mov	r0, r5
80006048:	ebffecd1 	bl	80001394 <strlen>
8000604c:	e2800001 	add	r0, r0, #1
80006050:	e3500c02 	cmp	r0, #512	; 0x200
80006054:	8a000017 	bhi	800060b8 <Cmd_cd+0x15c>
80006058:	e1a00004 	mov	r0, r4
8000605c:	e1a01005 	mov	r1, r5
80006060:	e30021ff 	movw	r2, #511	; 0x1ff
80006064:	ebffecc1 	bl	80001370 <strncpy>
80006068:	e59f0078 	ldr	r0, [pc, #120]	; 800060e8 <Cmd_cd+0x18c>
8000606c:	e2401c02 	sub	r1, r0, #512	; 0x200
80006070:	ebfffce6 	bl	80005410 <f_opendir>
80006074:	e2504000 	subs	r4, r0, #0
80006078:	1a000013 	bne	800060cc <Cmd_cd+0x170>
8000607c:	e30708c4 	movw	r0, #30916	; 0x78c4
80006080:	e30c1100 	movw	r1, #49408	; 0xc100
80006084:	e3481000 	movt	r1, #32768	; 0x8000
80006088:	e3a02c02 	mov	r2, #512	; 0x200
8000608c:	e3480000 	movt	r0, #32768	; 0x8000
80006090:	ebffecb6 	bl	80001370 <strncpy>
80006094:	e1a00004 	mov	r0, r4
80006098:	e8bd80f8 	pop	{r3, r4, r5, r6, r7, r15}
8000609c:	e30c0100 	movw	r0, #49408	; 0xc100
800060a0:	e30714ac 	movw	r1, #29868	; 0x74ac
800060a4:	e3480000 	movt	r0, #32768	; 0x8000
800060a8:	e3481000 	movt	r1, #32768	; 0x8000
800060ac:	ebffec49 	bl	800011d8 <strcat>
800060b0:	e5965004 	ldr	r5, [r6, #4]
800060b4:	eaffffc7 	b	80005fd8 <Cmd_cd+0x7c>
800060b8:	e3070488 	movw	r0, #29832	; 0x7488
800060bc:	e3480000 	movt	r0, #32768	; 0x8000
800060c0:	ebffecf3 	bl	80001494 <ConsolePrintf>
800060c4:	e3a00000 	mov	r0, #0
800060c8:	e8bd80f8 	pop	{r3, r4, r5, r6, r7, r15}
800060cc:	e30704b8 	movw	r0, #29880	; 0x74b8
800060d0:	e30c1100 	movw	r1, #49408	; 0xc100
800060d4:	e3480000 	movt	r0, #32768	; 0x8000
800060d8:	e3481000 	movt	r1, #32768	; 0x8000
800060dc:	ebffecec 	bl	80001494 <ConsolePrintf>
800060e0:	e1a00004 	mov	r0, r4
800060e4:	e8bd80f8 	pop	{r3, r4, r5, r6, r7, r15}
800060e8:	8000c300 	andhi	r12, r0, r0, lsl #6

800060ec <Cmd_mkdir>:
800060ec:	e92d40f8 	push	{r3, r4, r5, r6, r7, r14}
800060f0:	e1a06001 	mov	r6, r1
800060f4:	e5914004 	ldr	r4, [r1, #4]
800060f8:	e5d43000 	ldrb	r3, [r4]
800060fc:	e353002f 	cmp	r3, #47	; 0x2f
80006100:	0a000028 	beq	800061a8 <Cmd_mkdir+0xbc>
80006104:	e30c4100 	movw	r4, #49408	; 0xc100
80006108:	e30718c4 	movw	r1, #30916	; 0x78c4
8000610c:	e3484000 	movt	r4, #32768	; 0x8000
80006110:	e3481000 	movt	r1, #32768	; 0x8000
80006114:	e1a00004 	mov	r0, r4
80006118:	ebffec81 	bl	80001324 <strcpy>
8000611c:	e1a00004 	mov	r0, r4
80006120:	ebffec9b 	bl	80001394 <strlen>
80006124:	e5967004 	ldr	r7, [r6, #4]
80006128:	e1a05000 	mov	r5, r0
8000612c:	e1a00007 	mov	r0, r7
80006130:	ebffec97 	bl	80001394 <strlen>
80006134:	e0850000 	add	r0, r5, r0
80006138:	e2805002 	add	r5, r0, #2
8000613c:	e3550c02 	cmp	r5, #512	; 0x200
80006140:	8a000013 	bhi	80006194 <Cmd_mkdir+0xa8>
80006144:	e5d43000 	ldrb	r3, [r4]
80006148:	e353002f 	cmp	r3, #47	; 0x2f
8000614c:	0a000027 	beq	800061f0 <Cmd_mkdir+0x104>
80006150:	e30c0100 	movw	r0, #49408	; 0xc100
80006154:	e30714ac 	movw	r1, #29868	; 0x74ac
80006158:	e3480000 	movt	r0, #32768	; 0x8000
8000615c:	e3481000 	movt	r1, #32768	; 0x8000
80006160:	ebffec1c 	bl	800011d8 <strcat>
80006164:	e5967004 	ldr	r7, [r6, #4]
80006168:	e30c0100 	movw	r0, #49408	; 0xc100
8000616c:	e1a01007 	mov	r1, r7
80006170:	e3480000 	movt	r0, #32768	; 0x8000
80006174:	ebffec17 	bl	800011d8 <strcat>
80006178:	e30c0100 	movw	r0, #49408	; 0xc100
8000617c:	e3480000 	movt	r0, #32768	; 0x8000
80006180:	ebfffdf3 	bl	80005954 <f_mkdir>
80006184:	e2504000 	subs	r4, r0, #0
80006188:	1a000011 	bne	800061d4 <Cmd_mkdir+0xe8>
8000618c:	e3a00000 	mov	r0, #0
80006190:	e8bd80f8 	pop	{r3, r4, r5, r6, r7, r15}
80006194:	e3070488 	movw	r0, #29832	; 0x7488
80006198:	e3480000 	movt	r0, #32768	; 0x8000
8000619c:	ebffecbc 	bl	80001494 <ConsolePrintf>
800061a0:	e3a00000 	mov	r0, #0
800061a4:	e8bd80f8 	pop	{r3, r4, r5, r6, r7, r15}
800061a8:	e1a00004 	mov	r0, r4
800061ac:	ebffec78 	bl	80001394 <strlen>
800061b0:	e2800001 	add	r0, r0, #1
800061b4:	e3500c02 	cmp	r0, #512	; 0x200
800061b8:	8afffff5 	bhi	80006194 <Cmd_mkdir+0xa8>
800061bc:	e30c0100 	movw	r0, #49408	; 0xc100
800061c0:	e1a01004 	mov	r1, r4
800061c4:	e30021ff 	movw	r2, #511	; 0x1ff
800061c8:	e3480000 	movt	r0, #32768	; 0x8000
800061cc:	ebffec67 	bl	80001370 <strncpy>
800061d0:	eaffffe8 	b	80006178 <Cmd_mkdir+0x8c>
800061d4:	e30704c0 	movw	r0, #29888	; 0x74c0
800061d8:	e30c1100 	movw	r1, #49408	; 0xc100
800061dc:	e3480000 	movt	r0, #32768	; 0x8000
800061e0:	e3481000 	movt	r1, #32768	; 0x8000
800061e4:	ebffecaa 	bl	80001494 <ConsolePrintf>
800061e8:	e1a00004 	mov	r0, r4
800061ec:	e8bd80f8 	pop	{r3, r4, r5, r6, r7, r15}
800061f0:	e5d43001 	ldrb	r3, [r4, #1]
800061f4:	e3530000 	cmp	r3, #0
800061f8:	0affffda 	beq	80006168 <Cmd_mkdir+0x7c>
800061fc:	eaffffd3 	b	80006150 <Cmd_mkdir+0x64>

80006200 <Cmd_cat>:
80006200:	e92d41f0 	push	{r4, r5, r6, r7, r8, r14}
80006204:	e30758c4 	movw	r5, #30916	; 0x78c4
80006208:	e24dd008 	sub	r13, r13, #8
8000620c:	e3485000 	movt	r5, #32768	; 0x8000
80006210:	e1a08000 	mov	r8, r0
80006214:	e1a00005 	mov	r0, r5
80006218:	e1a07001 	mov	r7, r1
8000621c:	e3a04000 	mov	r4, #0
80006220:	e1cd40b4 	strh	r4, [r13, #4]
80006224:	e1cd40b6 	strh	r4, [r13, #6]
80006228:	ebffec59 	bl	80001394 <strlen>
8000622c:	e1a06000 	mov	r6, r0
80006230:	e5970004 	ldr	r0, [r7, #4]
80006234:	ebffec56 	bl	80001394 <strlen>
80006238:	e0860000 	add	r0, r6, r0
8000623c:	e2806002 	add	r6, r0, #2
80006240:	e3560c02 	cmp	r6, #512	; 0x200
80006244:	8a000046 	bhi	80006364 <Cmd_cat+0x164>
80006248:	e30c0100 	movw	r0, #49408	; 0xc100
8000624c:	e1a01005 	mov	r1, r5
80006250:	e3480000 	movt	r0, #32768	; 0x8000
80006254:	ebffec32 	bl	80001324 <strcpy>
80006258:	e5d53000 	ldrb	r3, [r5]
8000625c:	e353002f 	cmp	r3, #47	; 0x2f
80006260:	1a000056 	bne	800063c0 <Cmd_cat+0x1c0>
80006264:	e5d53001 	ldrb	r3, [r5, #1]
80006268:	e3530000 	cmp	r3, #0
8000626c:	1a000053 	bne	800063c0 <Cmd_cat+0x1c0>
80006270:	e3580003 	cmp	r8, #3
80006274:	ca000058 	bgt	800063dc <Cmd_cat+0x1dc>
80006278:	e5d53284 	ldrb	r3, [r5, #644]	; 0x284
8000627c:	e30758c4 	movw	r5, #30916	; 0x78c4
80006280:	e3485000 	movt	r5, #32768	; 0x8000
80006284:	e353003e 	cmp	r3, #62	; 0x3e
80006288:	0a000057 	beq	800063ec <Cmd_cat+0x1ec>
8000628c:	e30c5100 	movw	r5, #49408	; 0xc100
80006290:	e5971004 	ldr	r1, [r7, #4]
80006294:	e3485000 	movt	r5, #32768	; 0x8000
80006298:	e2850d0a 	add	r0, r5, #640	; 0x280
8000629c:	ebffec20 	bl	80001324 <strcpy>
800062a0:	e30714cc 	movw	r1, #29900	; 0x74cc
800062a4:	e2850d0a 	add	r0, r5, #640	; 0x280
800062a8:	e3481000 	movt	r1, #32768	; 0x8000
800062ac:	ebffebe4 	bl	80001244 <strcmp>
800062b0:	e2504000 	subs	r4, r0, #0
800062b4:	0a000030 	beq	8000637c <Cmd_cat+0x17c>
800062b8:	e5971004 	ldr	r1, [r7, #4]
800062bc:	e1a00005 	mov	r0, r5
800062c0:	ebffebc4 	bl	800011d8 <strcat>
800062c4:	e1a01005 	mov	r1, r5
800062c8:	e59f0258 	ldr	r0, [pc, #600]	; 80006528 <Cmd_cat+0x328>
800062cc:	e3a02001 	mov	r2, #1
800062d0:	ebfff984 	bl	800048e8 <f_open>
800062d4:	e2504000 	subs	r4, r0, #0
800062d8:	01a05004 	moveq	r5, r4
800062dc:	1a00001d 	bne	80006358 <Cmd_cat+0x158>
800062e0:	e30c6100 	movw	r6, #49408	; 0xc100
800062e4:	e3486000 	movt	r6, #32768	; 0x8000
800062e8:	ea000007 	b	8000630c <Cmd_cat+0x10c>
800062ec:	e1dd30b4 	ldrh	r3, [r13, #4]
800062f0:	e0863003 	add	r3, r6, r3
800062f4:	e5c35280 	strb	r5, [r3, #640]	; 0x280
800062f8:	ebffec65 	bl	80001494 <ConsolePrintf>
800062fc:	e1dd20b4 	ldrh	r2, [r13, #4]
80006300:	e30f3fff 	movw	r3, #65535	; 0xffff
80006304:	e1520003 	cmp	r2, r3
80006308:	1a000063 	bne	8000649c <Cmd_cat+0x29c>
8000630c:	e59f1218 	ldr	r1, [pc, #536]	; 8000652c <Cmd_cat+0x32c>
80006310:	e30f2fff 	movw	r2, #65535	; 0xffff
80006314:	e59f020c 	ldr	r0, [pc, #524]	; 80006528 <Cmd_cat+0x328>
80006318:	e28d3004 	add	r3, r13, #4
8000631c:	ebfffa14 	bl	80004b74 <f_read>
80006320:	e59f1204 	ldr	r1, [pc, #516]	; 8000652c <Cmd_cat+0x32c>
80006324:	e2504000 	subs	r4, r0, #0
80006328:	e30705e4 	movw	r0, #30180	; 0x75e4
8000632c:	e3480000 	movt	r0, #32768	; 0x8000
80006330:	1a000008 	bne	80006358 <Cmd_cat+0x158>
80006334:	e3550000 	cmp	r5, #0
80006338:	0affffeb 	beq	800062ec <Cmd_cat+0xec>
8000633c:	e59f01ec 	ldr	r0, [pc, #492]	; 80006530 <Cmd_cat+0x330>
80006340:	e28d3006 	add	r3, r13, #6
80006344:	e1dd20b4 	ldrh	r2, [r13, #4]
80006348:	ebfffaa4 	bl	80004de0 <f_write>
8000634c:	e3500000 	cmp	r0, #0
80006350:	0affffe9 	beq	800062fc <Cmd_cat+0xfc>
80006354:	e1a04000 	mov	r4, r0
80006358:	e1a00004 	mov	r0, r4
8000635c:	e28dd008 	add	r13, r13, #8
80006360:	e8bd81f0 	pop	{r4, r5, r6, r7, r8, r15}
80006364:	e3070488 	movw	r0, #29832	; 0x7488
80006368:	e3480000 	movt	r0, #32768	; 0x8000
8000636c:	ebffec48 	bl	80001494 <ConsolePrintf>
80006370:	e1a00004 	mov	r0, r4
80006374:	e28dd008 	add	r13, r13, #8
80006378:	e8bd81f0 	pop	{r4, r5, r6, r7, r8, r15}
8000637c:	e3070524 	movw	r0, #29988	; 0x7524
80006380:	e3480000 	movt	r0, #32768	; 0x8000
80006384:	ebffec42 	bl	80001494 <ConsolePrintf>
80006388:	e3070548 	movw	r0, #30024	; 0x7548
8000638c:	e3480000 	movt	r0, #32768	; 0x8000
80006390:	e3a01040 	mov	r1, #64	; 0x40
80006394:	ebffec3e 	bl	80001494 <ConsolePrintf>
80006398:	e1dd30b4 	ldrh	r3, [r13, #4]
8000639c:	e3530000 	cmp	r3, #0
800063a0:	0a000038 	beq	80006488 <Cmd_cat+0x288>
800063a4:	e0853003 	add	r3, r5, r3
800063a8:	e30705e4 	movw	r0, #30180	; 0x75e4
800063ac:	e2851d0a 	add	r1, r5, #640	; 0x280
800063b0:	e3480000 	movt	r0, #32768	; 0x8000
800063b4:	e5c3427f 	strb	r4, [r3, #639]	; 0x27f
800063b8:	ebffec35 	bl	80001494 <ConsolePrintf>
800063bc:	eaffffe5 	b	80006358 <Cmd_cat+0x158>
800063c0:	e30c0100 	movw	r0, #49408	; 0xc100
800063c4:	e30714ac 	movw	r1, #29868	; 0x74ac
800063c8:	e3480000 	movt	r0, #32768	; 0x8000
800063cc:	e3481000 	movt	r1, #32768	; 0x8000
800063d0:	ebffeb80 	bl	800011d8 <strcat>
800063d4:	e3580003 	cmp	r8, #3
800063d8:	daffffa6 	ble	80006278 <Cmd_cat+0x78>
800063dc:	e5971008 	ldr	r1, [r7, #8]
800063e0:	e59f014c 	ldr	r0, [pc, #332]	; 80006534 <Cmd_cat+0x334>
800063e4:	ebffebce 	bl	80001324 <strcpy>
800063e8:	eaffffa2 	b	80006278 <Cmd_cat+0x78>
800063ec:	e5d53285 	ldrb	r3, [r5, #645]	; 0x285
800063f0:	e3530000 	cmp	r3, #0
800063f4:	1affffa4 	bne	8000628c <Cmd_cat+0x8c>
800063f8:	e30c1100 	movw	r1, #49408	; 0xc100
800063fc:	e2850fa1 	add	r0, r5, #644	; 0x284
80006400:	e3481000 	movt	r1, #32768	; 0x8000
80006404:	ebffebc6 	bl	80001324 <strcpy>
80006408:	e5971004 	ldr	r1, [r7, #4]
8000640c:	e59f0118 	ldr	r0, [pc, #280]	; 8000652c <Cmd_cat+0x32c>
80006410:	ebffebc3 	bl	80001324 <strcpy>
80006414:	e30714cc 	movw	r1, #29900	; 0x74cc
80006418:	e3481000 	movt	r1, #32768	; 0x8000
8000641c:	e59f0108 	ldr	r0, [pc, #264]	; 8000652c <Cmd_cat+0x32c>
80006420:	ebffeb87 	bl	80001244 <strcmp>
80006424:	e2504000 	subs	r4, r0, #0
80006428:	0a00002d 	beq	800064e4 <Cmd_cat+0x2e4>
8000642c:	e30c0100 	movw	r0, #49408	; 0xc100
80006430:	e5971004 	ldr	r1, [r7, #4]
80006434:	e3480000 	movt	r0, #32768	; 0x8000
80006438:	ebffeb66 	bl	800011d8 <strcat>
8000643c:	e30c1100 	movw	r1, #49408	; 0xc100
80006440:	e3a02001 	mov	r2, #1
80006444:	e3481000 	movt	r1, #32768	; 0x8000
80006448:	e59f00d8 	ldr	r0, [pc, #216]	; 80006528 <Cmd_cat+0x328>
8000644c:	ebfff925 	bl	800048e8 <f_open>
80006450:	e597100c 	ldr	r1, [r7, #12]
80006454:	e1a04000 	mov	r4, r0
80006458:	e2850fa1 	add	r0, r5, #644	; 0x284
8000645c:	ebffeb5d 	bl	800011d8 <strcat>
80006460:	e2851fa1 	add	r1, r5, #644	; 0x284
80006464:	e59f00c4 	ldr	r0, [pc, #196]	; 80006530 <Cmd_cat+0x330>
80006468:	e3a02012 	mov	r2, #18
8000646c:	ebfff91d 	bl	800048e8 <f_open>
80006470:	e3540000 	cmp	r4, #0
80006474:	1affffb7 	bne	80006358 <Cmd_cat+0x158>
80006478:	e3500000 	cmp	r0, #0
8000647c:	03a05001 	moveq	r5, #1
80006480:	0affff96 	beq	800062e0 <Cmd_cat+0xe0>
80006484:	eaffffb2 	b	80006354 <Cmd_cat+0x154>
80006488:	e30704d8 	movw	r0, #29912	; 0x74d8
8000648c:	e3480000 	movt	r0, #32768	; 0x8000
80006490:	ebffebff 	bl	80001494 <ConsolePrintf>
80006494:	e1dd40b4 	ldrh	r4, [r13, #4]
80006498:	eaffffae 	b	80006358 <Cmd_cat+0x158>
8000649c:	e59f0084 	ldr	r0, [pc, #132]	; 80006528 <Cmd_cat+0x328>
800064a0:	ebfffb43 	bl	800051b4 <f_close>
800064a4:	e2504000 	subs	r4, r0, #0
800064a8:	1a000009 	bne	800064d4 <Cmd_cat+0x2d4>
800064ac:	e3550000 	cmp	r5, #0
800064b0:	0a000003 	beq	800064c4 <Cmd_cat+0x2c4>
800064b4:	e59f0074 	ldr	r0, [pc, #116]	; 80006530 <Cmd_cat+0x330>
800064b8:	ebfffb3d 	bl	800051b4 <f_close>
800064bc:	e2504000 	subs	r4, r0, #0
800064c0:	1a000003 	bne	800064d4 <Cmd_cat+0x2d4>
800064c4:	e3a04000 	mov	r4, #0
800064c8:	e1a00004 	mov	r0, r4
800064cc:	e28dd008 	add	r13, r13, #8
800064d0:	e8bd81f0 	pop	{r4, r5, r6, r7, r8, r15}
800064d4:	e30703cc 	movw	r0, #29644	; 0x73cc
800064d8:	e3480000 	movt	r0, #32768	; 0x8000
800064dc:	ebffebec 	bl	80001494 <ConsolePrintf>
800064e0:	eaffff9c 	b	80006358 <Cmd_cat+0x158>
800064e4:	e3070524 	movw	r0, #29988	; 0x7524
800064e8:	e3480000 	movt	r0, #32768	; 0x8000
800064ec:	ebffebe8 	bl	80001494 <ConsolePrintf>
800064f0:	e3070548 	movw	r0, #30024	; 0x7548
800064f4:	e3480000 	movt	r0, #32768	; 0x8000
800064f8:	e3a01040 	mov	r1, #64	; 0x40
800064fc:	ebffebe4 	bl	80001494 <ConsolePrintf>
80006500:	e1dd30b4 	ldrh	r3, [r13, #4]
80006504:	e3530000 	cmp	r3, #0
80006508:	0affffde 	beq	80006488 <Cmd_cat+0x288>
8000650c:	e30704f0 	movw	r0, #29936	; 0x74f0
80006510:	e3480000 	movt	r0, #32768	; 0x8000
80006514:	ebffebde 	bl	80001494 <ConsolePrintf>
80006518:	e3070508 	movw	r0, #29960	; 0x7508
8000651c:	e3480000 	movt	r0, #32768	; 0x8000
80006520:	ebffebdb 	bl	80001494 <ConsolePrintf>
80006524:	eaffff8b 	b	80006358 <Cmd_cat+0x158>
80006528:	8001c380 	andhi	r12, r1, r0, lsl #7
8000652c:	8000c380 	andhi	r12, r0, r0, lsl #7
80006530:	8001c600 	andhi	r12, r1, r0, lsl #12
80006534:	80007b48 	andhi	r7, r0, r8, asr #22

80006538 <Cmd_ls>:
80006538:	e30718c4 	movw	r1, #30916	; 0x78c4
8000653c:	e59f00f4 	ldr	r0, [pc, #244]	; 80006638 <Cmd_ls+0x100>
80006540:	e92d41f0 	push	{r4, r5, r6, r7, r8, r14}
80006544:	e3481000 	movt	r1, #32768	; 0x8000
80006548:	e24dd010 	sub	r13, r13, #16
8000654c:	ebfffbaf 	bl	80005410 <f_opendir>
80006550:	e3500000 	cmp	r0, #0
80006554:	1a000035 	bne	80006630 <Cmd_ls+0xf8>
80006558:	e30c80c0 	movw	r8, #49344	; 0xc0c0
8000655c:	e59f60d8 	ldr	r6, [pc, #216]	; 8000663c <Cmd_ls+0x104>
80006560:	e3488001 	movt	r8, #32769	; 0x8001
80006564:	e1a07008 	mov	r7, r8
80006568:	e59f00c8 	ldr	r0, [pc, #200]	; 80006638 <Cmd_ls+0x100>
8000656c:	e59f10c8 	ldr	r1, [pc, #200]	; 8000663c <Cmd_ls+0x104>
80006570:	ebfffbe0 	bl	800054f8 <f_readdir>
80006574:	e2504000 	subs	r4, r0, #0
80006578:	1a00002b 	bne	8000662c <Cmd_ls+0xf4>
8000657c:	e5d70791 	ldrb	r0, [r7, #1937]	; 0x791
80006580:	e3500000 	cmp	r0, #0
80006584:	0a000029 	beq	80006630 <Cmd_ls+0xf8>
80006588:	e30705e4 	movw	r0, #30180	; 0x75e4
8000658c:	e59f10ac 	ldr	r1, [pc, #172]	; 80006640 <Cmd_ls+0x108>
80006590:	e3480000 	movt	r0, #32768	; 0x8000
80006594:	ebffebbe 	bl	80001494 <ConsolePrintf>
80006598:	e59f00a0 	ldr	r0, [pc, #160]	; 80006640 <Cmd_ls+0x108>
8000659c:	ebffeb7c 	bl	80001394 <strlen>
800065a0:	e2605010 	rsb	r5, r0, #16
800065a4:	e307056c 	movw	r0, #30060	; 0x756c
800065a8:	e2844001 	add	r4, r4, #1
800065ac:	e3480000 	movt	r0, #32768	; 0x8000
800065b0:	ebffebb7 	bl	80001494 <ConsolePrintf>
800065b4:	e1550004 	cmp	r5, r4
800065b8:	2afffff9 	bcs	800065a4 <Cmd_ls+0x6c>
800065bc:	e1d610b4 	ldrh	r1, [r6, #4]
800065c0:	e3070558 	movw	r0, #30040	; 0x7558
800065c4:	e1d6c0b6 	ldrh	r12, [r6, #6]
800065c8:	e3480000 	movt	r0, #32768	; 0x8000
800065cc:	e201301f 	and	r3, r1, #31
800065d0:	e7e322d1 	ubfx	r2, r1, #5, #4
800065d4:	e20ce01f 	and	r14, r12, #31
800065d8:	e1a014a1 	lsr	r1, r1, #9
800065dc:	e2811e7b 	add	r1, r1, #1968	; 0x7b0
800065e0:	e1a045ac 	lsr	r4, r12, #11
800065e4:	e1a0e08e 	lsl	r14, r14, #1
800065e8:	e7e5c2dc 	ubfx	r12, r12, #5, #6
800065ec:	e281100c 	add	r1, r1, #12
800065f0:	e58d4000 	str	r4, [r13]
800065f4:	e98d5000 	stmib	r13, {r12, r14}
800065f8:	ebffeba5 	bl	80001494 <ConsolePrintf>
800065fc:	e5d83790 	ldrb	r3, [r8, #1936]	; 0x790
80006600:	e3130010 	tst	r3, #16
80006604:	0a000003 	beq	80006618 <Cmd_ls+0xe0>
80006608:	e3070570 	movw	r0, #30064	; 0x7570
8000660c:	e3480000 	movt	r0, #32768	; 0x8000
80006610:	ebffeb9f 	bl	80001494 <ConsolePrintf>
80006614:	eaffffd3 	b	80006568 <Cmd_ls+0x30>
80006618:	e3070578 	movw	r0, #30072	; 0x7578
8000661c:	e5971788 	ldr	r1, [r7, #1928]	; 0x788
80006620:	e3480000 	movt	r0, #32768	; 0x8000
80006624:	ebffeb9a 	bl	80001494 <ConsolePrintf>
80006628:	eaffffce 	b	80006568 <Cmd_ls+0x30>
8000662c:	e1a00004 	mov	r0, r4
80006630:	e28dd010 	add	r13, r13, #16
80006634:	e8bd81f0 	pop	{r4, r5, r6, r7, r8, r15}
80006638:	8000c300 	andhi	r12, r0, r0, lsl #6
8000663c:	8001c848 	andhi	r12, r1, r8, asr #16
80006640:	8001c851 	andhi	r12, r1, r1, asr r8

80006644 <StringFromFresult>:
80006644:	e59fc040 	ldr	r12, [pc, #64]	; 8000668c <StringFromFresult+0x48>
80006648:	e3a03000 	mov	r3, #0
8000664c:	e52de004 	push	{r14}		; (str r14, [r13, #-4]!)
80006650:	e30728c4 	movw	r2, #30916	; 0x78c4
80006654:	e79c1183 	ldr	r1, [r12, r3, lsl #3]
80006658:	e1a0e183 	lsl	r14, r3, #3
8000665c:	e3482000 	movt	r2, #32768	; 0x8000
80006660:	e2833001 	add	r3, r3, #1
80006664:	e1510000 	cmp	r1, r0
80006668:	0a000004 	beq	80006680 <StringFromFresult+0x3c>
8000666c:	e353000e 	cmp	r3, #14
80006670:	1afffff6 	bne	80006650 <StringFromFresult+0xc>
80006674:	e3070584 	movw	r0, #30084	; 0x7584
80006678:	e3480000 	movt	r0, #32768	; 0x8000
8000667c:	e49df004 	pop	{r15}		; (ldr r15, [r13], #4)
80006680:	e082200e 	add	r2, r2, r14
80006684:	e5920488 	ldr	r0, [r2, #1160]	; 0x488
80006688:	e49df004 	pop	{r15}		; (ldr r15, [r13], #4)
8000668c:	80007d48 	andhi	r7, r0, r8, asr #26

80006690 <FATFsMount>:
80006690:	e92d40f8 	push	{r3, r4, r5, r6, r7, r14}
80006694:	e1a04000 	mov	r4, r0
80006698:	e1a06001 	mov	r6, r1
8000669c:	e30708c4 	movw	r0, #30916	; 0x78c4
800066a0:	e30714ac 	movw	r1, #29868	; 0x74ac
800066a4:	e3480000 	movt	r0, #32768	; 0x8000
800066a8:	e3481000 	movt	r1, #32768	; 0x8000
800066ac:	e1a07002 	mov	r7, r2
800066b0:	e59f5048 	ldr	r5, [pc, #72]	; 80006700 <FATFsMount+0x70>
800066b4:	ebffeb1a 	bl	80001324 <strcpy>
800066b8:	e30713b4 	movw	r1, #29620	; 0x73b4
800066bc:	e1a00007 	mov	r0, r7
800066c0:	e3481000 	movt	r1, #32768	; 0x8000
800066c4:	ebffeb16 	bl	80001324 <strcpy>
800066c8:	e6ef0074 	uxtb	r0, r4
800066cc:	e0844084 	add	r4, r4, r4, lsl #1
800066d0:	e1a01005 	mov	r1, r5
800066d4:	ebfff86b 	bl	80004888 <f_mount>
800066d8:	e30d3084 	movw	r3, #53380	; 0xd084
800066dc:	e1a04104 	lsl	r4, r4, #2
800066e0:	e3483001 	movt	r3, #32769	; 0x8001
800066e4:	e2842008 	add	r2, r4, #8
800066e8:	e083c004 	add	r12, r3, r4
800066ec:	e3a00000 	mov	r0, #0
800066f0:	e7836004 	str	r6, [r3, r4]
800066f4:	e58c5004 	str	r5, [r12, #4]
800066f8:	e7830002 	str	r0, [r3, r2]
800066fc:	e8bd80f8 	pop	{r3, r4, r5, r6, r7, r15}
80006700:	8001c880 	andhi	r12, r1, r0, lsl #17

80006704 <CmdLineParse>:
80006704:	e5d03000 	ldrb	r3, [r0]
80006708:	e3530000 	cmp	r3, #0
8000670c:	0a000030 	beq	800067d4 <CmdLineParse+0xd0>
80006710:	e92d4070 	push	{r4, r5, r6, r14}
80006714:	e30c10c0 	movw	r1, #49344	; 0xc0c0
80006718:	e3a04000 	mov	r4, #0
8000671c:	e3481001 	movt	r1, #32769	; 0x8001
80006720:	e1a0c004 	mov	r12, r4
80006724:	e3a02001 	mov	r2, #1
80006728:	e3530020 	cmp	r3, #32
8000672c:	05c0c000 	strbeq	r12, [r0]
80006730:	03a02001 	moveq	r2, #1
80006734:	0a000007 	beq	80006758 <CmdLineParse+0x54>
80006738:	e3520000 	cmp	r2, #0
8000673c:	e0813104 	add	r3, r1, r4, lsl #2
80006740:	0a000004 	beq	80006758 <CmdLineParse+0x54>
80006744:	e3540007 	cmp	r4, #7
80006748:	e3a02000 	mov	r2, #0
8000674c:	e2844001 	add	r4, r4, #1
80006750:	ca00001d 	bgt	800067cc <CmdLineParse+0xc8>
80006754:	e5830a00 	str	r0, [r3, #2560]	; 0xa00
80006758:	e5f03001 	ldrb	r3, [r0, #1]!
8000675c:	e3530000 	cmp	r3, #0
80006760:	1afffff0 	bne	80006728 <CmdLineParse+0x24>
80006764:	e3540000 	cmp	r4, #0
80006768:	0a000015 	beq	800067c4 <CmdLineParse+0xc0>
8000676c:	e30758c4 	movw	r5, #30916	; 0x78c4
80006770:	e3485000 	movt	r5, #32768	; 0x8000
80006774:	e5951200 	ldr	r1, [r5, #512]	; 0x200
80006778:	e3510000 	cmp	r1, #0
8000677c:	0a000010 	beq	800067c4 <CmdLineParse+0xc0>
80006780:	e30c30c0 	movw	r3, #49344	; 0xc0c0
80006784:	e2855c02 	add	r5, r5, #512	; 0x200
80006788:	e3483001 	movt	r3, #32769	; 0x8001
8000678c:	e5936a00 	ldr	r6, [r3, #2560]	; 0xa00
80006790:	ea000002 	b	800067a0 <CmdLineParse+0x9c>
80006794:	e5b5100c 	ldr	r1, [r5, #12]!
80006798:	e3510000 	cmp	r1, #0
8000679c:	0a000008 	beq	800067c4 <CmdLineParse+0xc0>
800067a0:	e1a00006 	mov	r0, r6
800067a4:	ebffeaa6 	bl	80001244 <strcmp>
800067a8:	e3500000 	cmp	r0, #0
800067ac:	1afffff8 	bne	80006794 <CmdLineParse+0x90>
800067b0:	e5953004 	ldr	r3, [r5, #4]
800067b4:	e1a00004 	mov	r0, r4
800067b8:	e59f101c 	ldr	r1, [pc, #28]	; 800067dc <CmdLineParse+0xd8>
800067bc:	e8bd4070 	pop	{r4, r5, r6, r14}
800067c0:	e12fff13 	bx	r3
800067c4:	e3e00000 	mvn	r0, #0
800067c8:	e8bd8070 	pop	{r4, r5, r6, r15}
800067cc:	e3e00001 	mvn	r0, #1
800067d0:	e8bd8070 	pop	{r4, r5, r6, r15}
800067d4:	e3e00000 	mvn	r0, #0
800067d8:	e12fff1e 	bx	r14
800067dc:	8001cac0 	andhi	r12, r1, r0, asr #21

800067e0 <CmdLineProcess>:
800067e0:	e92d4010 	push	{r4, r14}
800067e4:	e1a04000 	mov	r4, r0
800067e8:	e5d03000 	ldrb	r3, [r0]
800067ec:	e3530000 	cmp	r3, #0
800067f0:	1a000008 	bne	80006818 <CmdLineProcess+0x38>
800067f4:	e30705e0 	movw	r0, #30176	; 0x75e0
800067f8:	e30718c4 	movw	r1, #30916	; 0x78c4
800067fc:	e3a03000 	mov	r3, #0
80006800:	e1a02004 	mov	r2, r4
80006804:	e5c43000 	strb	r3, [r4]
80006808:	e3480000 	movt	r0, #32768	; 0x8000
8000680c:	e3481000 	movt	r1, #32768	; 0x8000
80006810:	e8bd4010 	pop	{r4, r14}
80006814:	eaffeb1e 	b	80001494 <ConsolePrintf>
80006818:	ebffffb9 	bl	80006704 <CmdLineParse>
8000681c:	e3700001 	cmn	r0, #1
80006820:	0a000017 	beq	80006884 <CmdLineProcess+0xa4>
80006824:	e3700002 	cmn	r0, #2
80006828:	0a000019 	beq	80006894 <CmdLineProcess+0xb4>
8000682c:	e3500000 	cmp	r0, #0
80006830:	0affffef 	beq	800067f4 <CmdLineProcess+0x14>
80006834:	e59fc068 	ldr	r12, [pc, #104]	; 800068a4 <CmdLineProcess+0xc4>
80006838:	e3a03000 	mov	r3, #0
8000683c:	e79c2183 	ldr	r2, [r12, r3, lsl #3]
80006840:	e30718c4 	movw	r1, #30916	; 0x78c4
80006844:	e1a0e183 	lsl	r14, r3, #3
80006848:	e3481000 	movt	r1, #32768	; 0x8000
8000684c:	e1500002 	cmp	r0, r2
80006850:	e2833001 	add	r3, r3, #1
80006854:	0a000007 	beq	80006878 <CmdLineProcess+0x98>
80006858:	e353000e 	cmp	r3, #14
8000685c:	1afffff6 	bne	8000683c <CmdLineProcess+0x5c>
80006860:	e3071584 	movw	r1, #30084	; 0x7584
80006864:	e3481000 	movt	r1, #32768	; 0x8000
80006868:	e30705c4 	movw	r0, #30148	; 0x75c4
8000686c:	e3480000 	movt	r0, #32768	; 0x8000
80006870:	ebffeb07 	bl	80001494 <ConsolePrintf>
80006874:	eaffffde 	b	800067f4 <CmdLineProcess+0x14>
80006878:	e081100e 	add	r1, r1, r14
8000687c:	e5911488 	ldr	r1, [r1, #1160]	; 0x488
80006880:	eafffff8 	b	80006868 <CmdLineProcess+0x88>
80006884:	e3070598 	movw	r0, #30104	; 0x7598
80006888:	e3480000 	movt	r0, #32768	; 0x8000
8000688c:	ebffeb00 	bl	80001494 <ConsolePrintf>
80006890:	eaffffd7 	b	800067f4 <CmdLineProcess+0x14>
80006894:	e30705b0 	movw	r0, #30128	; 0x75b0
80006898:	e3480000 	movt	r0, #32768	; 0x8000
8000689c:	ebffeafc 	bl	80001494 <ConsolePrintf>
800068a0:	eaffffd3 	b	800067f4 <CmdLineProcess+0x14>
800068a4:	80007d48 	andhi	r7, r0, r8, asr #26

800068a8 <callback>:
800068a8:	e30c3b00 	movw	r3, #51968	; 0xcb00
800068ac:	e1a01000 	mov	r1, r0
800068b0:	e3483001 	movt	r3, #32769	; 0x8001
800068b4:	e3a0c001 	mov	r12, #1
800068b8:	e3a00449 	mov	r0, #1224736768	; 0x49000000
800068bc:	e3a02002 	mov	r2, #2
800068c0:	e583c000 	str	r12, [r3]
800068c4:	eaffede4 	b	8000205c <DMADisableTransfer>

800068c8 <mmc0_get_cmd_status>:
800068c8:	e30c2b00 	movw	r2, #51968	; 0xcb00
800068cc:	e3482001 	movt	r2, #32769	; 0x8001
800068d0:	e1a01002 	mov	r1, r2
800068d4:	ea000002 	b	800068e4 <mmc0_get_cmd_status+0x1c>
800068d8:	e5913008 	ldr	r3, [r1, #8]
800068dc:	e3530000 	cmp	r3, #0
800068e0:	1a000002 	bne	800068f0 <mmc0_get_cmd_status+0x28>
800068e4:	e5923004 	ldr	r3, [r2, #4]
800068e8:	e3530000 	cmp	r3, #0
800068ec:	0afffff9 	beq	800068d8 <mmc0_get_cmd_status+0x10>
800068f0:	e5920004 	ldr	r0, [r2, #4]
800068f4:	e30c3b00 	movw	r3, #51968	; 0xcb00
800068f8:	e3483001 	movt	r3, #32769	; 0x8001
800068fc:	e3500000 	cmp	r0, #0
80006900:	13a01000 	movne	r1, #0
80006904:	15831004 	strne	r1, [r3, #4]
80006908:	e5922008 	ldr	r2, [r2, #8]
8000690c:	13a00001 	movne	r0, #1
80006910:	e30c3b00 	movw	r3, #51968	; 0xcb00
80006914:	e3520000 	cmp	r2, #0
80006918:	e3483001 	movt	r3, #32769	; 0x8001
8000691c:	13a00000 	movne	r0, #0
80006920:	15830008 	strne	r0, [r3, #8]
80006924:	e12fff1e 	bx	r14

80006928 <mmc0_get_xfer_status>:
80006928:	e92d4030 	push	{r4, r5, r14}
8000692c:	e30c4b00 	movw	r4, #51968	; 0xcb00
80006930:	e24dd00c 	sub	r13, r13, #12
80006934:	e3484001 	movt	r4, #32769	; 0x8001
80006938:	e30f3fff 	movw	r3, #65535	; 0xffff
8000693c:	e1a02004 	mov	r2, r4
80006940:	e58d3004 	str	r3, [r13, #4]
80006944:	ea000002 	b	80006954 <mmc0_get_xfer_status+0x2c>
80006948:	e5923010 	ldr	r3, [r2, #16]
8000694c:	e3530000 	cmp	r3, #0
80006950:	1a000002 	bne	80006960 <mmc0_get_xfer_status+0x38>
80006954:	e594300c 	ldr	r3, [r4, #12]
80006958:	e3530000 	cmp	r3, #0
8000695c:	0afffff9 	beq	80006948 <mmc0_get_xfer_status+0x20>
80006960:	e594500c 	ldr	r5, [r4, #12]
80006964:	e30c3b00 	movw	r3, #51968	; 0xcb00
80006968:	e3483001 	movt	r3, #32769	; 0x8001
8000696c:	e3550000 	cmp	r5, #0
80006970:	13a02000 	movne	r2, #0
80006974:	1583200c 	strne	r2, [r3, #12]
80006978:	e5942010 	ldr	r2, [r4, #16]
8000697c:	13a05001 	movne	r5, #1
80006980:	e30c3b00 	movw	r3, #51968	; 0xcb00
80006984:	e3520000 	cmp	r2, #0
80006988:	e3483001 	movt	r3, #32769	; 0x8001
8000698c:	13a05000 	movne	r5, #0
80006990:	15835010 	strne	r5, [r3, #16]
80006994:	e5903000 	ldr	r3, [r0]
80006998:	e593320c 	ldr	r3, [r3, #524]	; 0x20c
8000699c:	e3130602 	tst	r3, #2097152	; 0x200000
800069a0:	1a000006 	bne	800069c0 <mmc0_get_xfer_status+0x98>
800069a4:	e30d30e4 	movw	r3, #53476	; 0xd0e4
800069a8:	e1a00005 	mov	r0, r5
800069ac:	e3483001 	movt	r3, #32769	; 0x8001
800069b0:	e3a02000 	mov	r2, #0
800069b4:	e5832010 	str	r2, [r3, #16]
800069b8:	e28dd00c 	add	r13, r13, #12
800069bc:	e8bd8030 	pop	{r4, r5, r15}
800069c0:	ebffe732 	bl	80000690 <nothing>
800069c4:	ea000004 	b	800069dc <mmc0_get_xfer_status+0xb4>
800069c8:	e59d3004 	ldr	r3, [r13, #4]
800069cc:	e3530000 	cmp	r3, #0
800069d0:	e2433001 	sub	r3, r3, #1
800069d4:	e58d3004 	str	r3, [r13, #4]
800069d8:	0a000002 	beq	800069e8 <mmc0_get_xfer_status+0xc0>
800069dc:	e5943000 	ldr	r3, [r4]
800069e0:	e3530000 	cmp	r3, #0
800069e4:	0afffff7 	beq	800069c8 <mmc0_get_xfer_status+0xa0>
800069e8:	e3a03000 	mov	r3, #0
800069ec:	e5843000 	str	r3, [r4]
800069f0:	e59d3004 	ldr	r3, [r13, #4]
800069f4:	e3530000 	cmp	r3, #0
800069f8:	03a05000 	moveq	r5, #0
800069fc:	eaffffe8 	b	800069a4 <mmc0_get_xfer_status+0x7c>

80006a00 <MMCRxDMAsetup>:
80006a00:	e92d4010 	push	{r4, r14}
80006a04:	e30d30e4 	movw	r3, #53476	; 0xd0e4
80006a08:	e24dd020 	sub	r13, r13, #32
80006a0c:	e3483001 	movt	r3, #32769	; 0x8001
80006a10:	e28de020 	add	r14, r13, #32
80006a14:	e593c000 	ldr	r12, [r3]
80006a18:	e3094205 	movw	r4, #37381	; 0x9205
80006a1c:	e1a03001 	mov	r3, r1
80006a20:	e58d000c 	str	r0, [r13, #12]
80006a24:	e3404011 	movt	r4, #17
80006a28:	e1cd21bc 	strh	r2, [r13, #28]
80006a2c:	e3a00449 	mov	r0, #1224736768	; 0x49000000
80006a30:	e52e4020 	str	r4, [r14, #-32]!	; 0xffffffe0
80006a34:	e3a01019 	mov	r1, #25
80006a38:	e1a0200e 	mov	r2, r14
80006a3c:	e1cd31ba 	strh	r3, [r13, #26]
80006a40:	e3e0e000 	mvn	r14, #0
80006a44:	e7ed3153 	ubfx	r3, r3, #2, #14
80006a48:	e1cde1b4 	strh	r14, [r13, #20]
80006a4c:	e28cce22 	add	r12, r12, #544	; 0x220
80006a50:	e1cd30ba 	strh	r3, [r13, #10]
80006a54:	e3a03000 	mov	r3, #0
80006a58:	e58dc004 	str	r12, [r13, #4]
80006a5c:	e3a0c004 	mov	r12, #4
80006a60:	e1cd31b0 	strh	r3, [r13, #16]
80006a64:	e1cd31b8 	strh	r3, [r13, #24]
80006a68:	e1cd31b6 	strh	r3, [r13, #22]
80006a6c:	e1cdc1b2 	strh	r12, [r13, #18]
80006a70:	e1cdc0b8 	strh	r12, [r13, #8]
80006a74:	ebffed0f 	bl	80001eb8 <DMASetPaRAM>
80006a78:	e3a01019 	mov	r1, #25
80006a7c:	e3a02002 	mov	r2, #2
80006a80:	e3a00449 	mov	r0, #1224736768	; 0x49000000
80006a84:	ebffed4f 	bl	80001fc8 <DMAEnableTransfer>
80006a88:	e28dd020 	add	r13, r13, #32
80006a8c:	e8bd8010 	pop	{r4, r15}

80006a90 <MMCTxDMAsetup>:
80006a90:	e92d4010 	push	{r4, r14}
80006a94:	e30d30e4 	movw	r3, #53476	; 0xd0e4
80006a98:	e24dd020 	sub	r13, r13, #32
80006a9c:	e3483001 	movt	r3, #32769	; 0x8001
80006aa0:	e28de020 	add	r14, r13, #32
80006aa4:	e593c000 	ldr	r12, [r3]
80006aa8:	e3084206 	movw	r4, #33286	; 0x8206
80006aac:	e1a03001 	mov	r3, r1
80006ab0:	e58d0004 	str	r0, [r13, #4]
80006ab4:	e3404011 	movt	r4, #17
80006ab8:	e1cd21bc 	strh	r2, [r13, #28]
80006abc:	e3a00449 	mov	r0, #1224736768	; 0x49000000
80006ac0:	e52e4020 	str	r4, [r14, #-32]!	; 0xffffffe0
80006ac4:	e3a01018 	mov	r1, #24
80006ac8:	e1a0200e 	mov	r2, r14
80006acc:	e1cd31b8 	strh	r3, [r13, #24]
80006ad0:	e3a0e004 	mov	r14, #4
80006ad4:	e7ed3153 	ubfx	r3, r3, #2, #14
80006ad8:	e1cde1b0 	strh	r14, [r13, #16]
80006adc:	e28cce22 	add	r12, r12, #544	; 0x220
80006ae0:	e1cd30ba 	strh	r3, [r13, #10]
80006ae4:	e3a03000 	mov	r3, #0
80006ae8:	e58dc00c 	str	r12, [r13, #12]
80006aec:	e3e0c000 	mvn	r12, #0
80006af0:	e1cde0b8 	strh	r14, [r13, #8]
80006af4:	e1cd31b2 	strh	r3, [r13, #18]
80006af8:	e1cd31ba 	strh	r3, [r13, #26]
80006afc:	e1cd31b6 	strh	r3, [r13, #22]
80006b00:	e1cdc1b4 	strh	r12, [r13, #20]
80006b04:	ebffeceb 	bl	80001eb8 <DMASetPaRAM>
80006b08:	e3a01018 	mov	r1, #24
80006b0c:	e3a02002 	mov	r2, #2
80006b10:	e3a00449 	mov	r0, #1224736768	; 0x49000000
80006b14:	ebffed2b 	bl	80001fc8 <DMAEnableTransfer>
80006b18:	e28dd020 	add	r13, r13, #32
80006b1c:	e8bd8010 	pop	{r4, r15}

80006b20 <MMCXferSetup>:
80006b20:	e92d4038 	push	{r3, r4, r5, r14}
80006b24:	e1a05003 	mov	r5, r3
80006b28:	e59d3010 	ldr	r3, [r13, #16]
80006b2c:	e3510001 	cmp	r1, #1
80006b30:	e30ccb00 	movw	r12, #51968	; 0xcb00
80006b34:	e3a0e000 	mov	r14, #0
80006b38:	e348c001 	movt	r12, #32769	; 0x8001
80006b3c:	e1a04000 	mov	r4, r0
80006b40:	e58ce000 	str	r14, [r12]
80006b44:	e1a00002 	mov	r0, r2
80006b48:	e58ce00c 	str	r14, [r12, #12]
80006b4c:	e1a02003 	mov	r2, r3
80006b50:	e1a01005 	mov	r1, r5
80006b54:	0a000006 	beq	80006b74 <MMCXferSetup+0x54>
80006b58:	ebffffcc 	bl	80006a90 <MMCTxDMAsetup>
80006b5c:	e3a03001 	mov	r3, #1
80006b60:	e1a01005 	mov	r1, r5
80006b64:	e5940000 	ldr	r0, [r4]
80006b68:	e5843010 	str	r3, [r4, #16]
80006b6c:	e8bd4038 	pop	{r3, r4, r5, r14}
80006b70:	eafff033 	b	80002c44 <MMCBlkLenSet>
80006b74:	ebffffa1 	bl	80006a00 <MMCRxDMAsetup>
80006b78:	eafffff7 	b	80006b5c <MMCXferSetup+0x3c>

80006b7c <DMACompletionISR>:
80006b7c:	e92d4070 	push	{r4, r5, r6, r14}
80006b80:	e24dd008 	sub	r13, r13, #8
80006b84:	e3a00449 	mov	r0, #1224736768	; 0x49000000
80006b88:	e3a05000 	mov	r5, #0
80006b8c:	e58d5004 	str	r5, [r13, #4]
80006b90:	ebffec5b 	bl	80001d04 <DMAGetIntrStatus>
80006b94:	e58d0004 	str	r0, [r13, #4]
80006b98:	e59d3004 	ldr	r3, [r13, #4]
80006b9c:	e1530005 	cmp	r3, r5
80006ba0:	0a000023 	beq	80006c34 <DMACompletionISR+0xb8>
80006ba4:	e59f6090 	ldr	r6, [pc, #144]	; 80006c3c <DMACompletionISR+0xc0>
80006ba8:	e3a00449 	mov	r0, #1224736768	; 0x49000000
80006bac:	ebffec54 	bl	80001d04 <DMAGetIntrStatus>
80006bb0:	e58d0000 	str	r0, [r13]
80006bb4:	e59d3000 	ldr	r3, [r13]
80006bb8:	e3530000 	cmp	r3, #0
80006bbc:	0a00001c 	beq	80006c34 <DMACompletionISR+0xb8>
80006bc0:	e3a04000 	mov	r4, #0
80006bc4:	ea000006 	b	80006be4 <DMACompletionISR+0x68>
80006bc8:	e59d3000 	ldr	r3, [r13]
80006bcc:	e2844001 	add	r4, r4, #1
80006bd0:	e1a030a3 	lsr	r3, r3, #1
80006bd4:	e58d3000 	str	r3, [r13]
80006bd8:	e59d3000 	ldr	r3, [r13]
80006bdc:	e3530000 	cmp	r3, #0
80006be0:	0a00000c 	beq	80006c18 <DMACompletionISR+0x9c>
80006be4:	e59d3000 	ldr	r3, [r13]
80006be8:	e3130001 	tst	r3, #1
80006bec:	0afffff5 	beq	80006bc8 <DMACompletionISR+0x4c>
80006bf0:	e3a00449 	mov	r0, #1224736768	; 0x49000000
80006bf4:	e1a01004 	mov	r1, r4
80006bf8:	ebffec85 	bl	80001e14 <DMAClrIntr>
80006bfc:	e7963104 	ldr	r3, [r6, r4, lsl #2]
80006c00:	e3a01000 	mov	r1, #0
80006c04:	e1a00004 	mov	r0, r4
80006c08:	e1530001 	cmp	r3, r1
80006c0c:	0affffed 	beq	80006bc8 <DMACompletionISR+0x4c>
80006c10:	e12fff33 	blx	r3
80006c14:	eaffffeb 	b	80006bc8 <DMACompletionISR+0x4c>
80006c18:	e2944000 	adds	r4, r4, #0
80006c1c:	e2855001 	add	r5, r5, #1
80006c20:	13a04001 	movne	r4, #1
80006c24:	e3550009 	cmp	r5, #9
80006c28:	83a04000 	movhi	r4, #0
80006c2c:	e3540000 	cmp	r4, #0
80006c30:	1affffdc 	bne	80006ba8 <DMACompletionISR+0x2c>
80006c34:	e28dd008 	add	r13, r13, #8
80006c38:	e8bd8070 	pop	{r4, r5, r6, r15}
80006c3c:	8001cb14 	andhi	r12, r1, r4, lsl r11

80006c40 <DMACCErrorISR>:
80006c40:	e92d4030 	push	{r4, r5, r14}
80006c44:	e24dd01c 	sub	r13, r13, #28
80006c48:	e3a00449 	mov	r0, #1224736768	; 0x49000000
80006c4c:	e3a03000 	mov	r3, #0
80006c50:	e3a02001 	mov	r2, #1
80006c54:	e58d3000 	str	r3, [r13]
80006c58:	e58d3008 	str	r3, [r13, #8]
80006c5c:	e58d300c 	str	r3, [r13, #12]
80006c60:	e58d3010 	str	r3, [r13, #16]
80006c64:	e58d3004 	str	r3, [r13, #4]
80006c68:	e58d2014 	str	r2, [r13, #20]
80006c6c:	ebffec24 	bl	80001d04 <DMAGetIntrStatus>
80006c70:	e1a03000 	mov	r3, r0
80006c74:	e3a00449 	mov	r0, #1224736768	; 0x49000000
80006c78:	e58d300c 	str	r3, [r13, #12]
80006c7c:	ebffec27 	bl	80001d20 <DMAIntrStatusHighGet>
80006c80:	e58d0008 	str	r0, [r13, #8]
80006c84:	e59d300c 	ldr	r3, [r13, #12]
80006c88:	e59d2008 	ldr	r2, [r13, #8]
80006c8c:	e1923003 	orrs	r3, r2, r3
80006c90:	0a00006d 	beq	80006e4c <DMACCErrorISR+0x20c>
80006c94:	e59d3010 	ldr	r3, [r13, #16]
80006c98:	e3530009 	cmp	r3, #9
80006c9c:	8a000061 	bhi	80006e28 <DMACCErrorISR+0x1e8>
80006ca0:	e59d3014 	ldr	r3, [r13, #20]
80006ca4:	e3530000 	cmp	r3, #0
80006ca8:	0a00005e 	beq	80006e28 <DMACCErrorISR+0x1e8>
80006cac:	e3a04000 	mov	r4, #0
80006cb0:	e3a05001 	mov	r5, #1
80006cb4:	e58d4014 	str	r4, [r13, #20]
80006cb8:	e3a00449 	mov	r0, #1224736768	; 0x49000000
80006cbc:	e59d300c 	ldr	r3, [r13, #12]
80006cc0:	e3530000 	cmp	r3, #0
80006cc4:	0a000059 	beq	80006e30 <DMACCErrorISR+0x1f0>
80006cc8:	ebffec1b 	bl	80001d3c <DMAGetErrIntrStatus>
80006ccc:	e58d0004 	str	r0, [r13, #4]
80006cd0:	ea00000e 	b	80006d10 <DMACCErrorISR+0xd0>
80006cd4:	e59d3004 	ldr	r3, [r13, #4]
80006cd8:	e3130001 	tst	r3, #1
80006cdc:	0a000005 	beq	80006cf8 <DMACCErrorISR+0xb8>
80006ce0:	e59d300c 	ldr	r3, [r13, #12]
80006ce4:	e3a00449 	mov	r0, #1224736768	; 0x49000000
80006ce8:	e59d1014 	ldr	r1, [r13, #20]
80006cec:	e3530000 	cmp	r3, #0
80006cf0:	02811020 	addeq	r1, r1, #32
80006cf4:	ebffeb6f 	bl	80001ab8 <DMAClrMissEvt>
80006cf8:	e59d3014 	ldr	r3, [r13, #20]
80006cfc:	e2833001 	add	r3, r3, #1
80006d00:	e58d3014 	str	r3, [r13, #20]
80006d04:	e59d3004 	ldr	r3, [r13, #4]
80006d08:	e1a030a3 	lsr	r3, r3, #1
80006d0c:	e58d3004 	str	r3, [r13, #4]
80006d10:	e59d3004 	ldr	r3, [r13, #4]
80006d14:	e3530000 	cmp	r3, #0
80006d18:	1affffed 	bne	80006cd4 <DMACCErrorISR+0x94>
80006d1c:	e3a00449 	mov	r0, #1224736768	; 0x49000000
80006d20:	e58d4014 	str	r4, [r13, #20]
80006d24:	ebffec08 	bl	80001d4c <DMAQdmaGetErrIntrStatus>
80006d28:	e58d0004 	str	r0, [r13, #4]
80006d2c:	e59d3004 	ldr	r3, [r13, #4]
80006d30:	e3530000 	cmp	r3, #0
80006d34:	1a000009 	bne	80006d60 <DMACCErrorISR+0x120>
80006d38:	ea00000f 	b	80006d7c <DMACCErrorISR+0x13c>
80006d3c:	e59d3014 	ldr	r3, [r13, #20]
80006d40:	e2833001 	add	r3, r3, #1
80006d44:	e58d3014 	str	r3, [r13, #20]
80006d48:	e59d3004 	ldr	r3, [r13, #4]
80006d4c:	e1a030a3 	lsr	r3, r3, #1
80006d50:	e58d3004 	str	r3, [r13, #4]
80006d54:	e59d3004 	ldr	r3, [r13, #4]
80006d58:	e3530000 	cmp	r3, #0
80006d5c:	0a000006 	beq	80006d7c <DMACCErrorISR+0x13c>
80006d60:	e59d3004 	ldr	r3, [r13, #4]
80006d64:	e3130001 	tst	r3, #1
80006d68:	0afffff3 	beq	80006d3c <DMACCErrorISR+0xfc>
80006d6c:	e59d1014 	ldr	r1, [r13, #20]
80006d70:	e3a00449 	mov	r0, #1224736768	; 0x49000000
80006d74:	ebffeb6b 	bl	80001b28 <DMAQdmaClrMissEvt>
80006d78:	eaffffef 	b	80006d3c <DMACCErrorISR+0xfc>
80006d7c:	e3a00449 	mov	r0, #1224736768	; 0x49000000
80006d80:	e58d4014 	str	r4, [r13, #20]
80006d84:	ebffebdc 	bl	80001cfc <DMAGetCCErrStatus>
80006d88:	e58d0004 	str	r0, [r13, #4]
80006d8c:	e59d3004 	ldr	r3, [r13, #4]
80006d90:	e3530000 	cmp	r3, #0
80006d94:	0a00001a 	beq	80006e04 <DMACCErrorISR+0x1c4>
80006d98:	e58d4000 	str	r4, [r13]
80006d9c:	e59d3000 	ldr	r3, [r13]
80006da0:	e3530003 	cmp	r3, #3
80006da4:	9a000006 	bls	80006dc4 <DMACCErrorISR+0x184>
80006da8:	ea00000f 	b	80006dec <DMACCErrorISR+0x1ac>
80006dac:	e59d3000 	ldr	r3, [r13]
80006db0:	e2833001 	add	r3, r3, #1
80006db4:	e58d3000 	str	r3, [r13]
80006db8:	e59d3000 	ldr	r3, [r13]
80006dbc:	e3530003 	cmp	r3, #3
80006dc0:	8a000009 	bhi	80006dec <DMACCErrorISR+0x1ac>
80006dc4:	e59d3004 	ldr	r3, [r13, #4]
80006dc8:	e59d2000 	ldr	r2, [r13]
80006dcc:	e1a03233 	lsr	r3, r3, r2
80006dd0:	e3130001 	tst	r3, #1
80006dd4:	0afffff4 	beq	80006dac <DMACCErrorISR+0x16c>
80006dd8:	e59d1000 	ldr	r1, [r13]
80006ddc:	e3a00449 	mov	r0, #1224736768	; 0x49000000
80006de0:	e1a01115 	lsl	r1, r5, r1
80006de4:	ebffeb5b 	bl	80001b58 <DMAClrCCErr>
80006de8:	eaffffef 	b	80006dac <DMACCErrorISR+0x16c>
80006dec:	e59d3004 	ldr	r3, [r13, #4]
80006df0:	e3130801 	tst	r3, #65536	; 0x10000
80006df4:	1a000010 	bne	80006e3c <DMACCErrorISR+0x1fc>
80006df8:	e59d3014 	ldr	r3, [r13, #20]
80006dfc:	e2833001 	add	r3, r3, #1
80006e00:	e58d3014 	str	r3, [r13, #20]
80006e04:	e59d3010 	ldr	r3, [r13, #16]
80006e08:	e2833001 	add	r3, r3, #1
80006e0c:	e58d3010 	str	r3, [r13, #16]
80006e10:	e59d3010 	ldr	r3, [r13, #16]
80006e14:	e3530009 	cmp	r3, #9
80006e18:	8a000002 	bhi	80006e28 <DMACCErrorISR+0x1e8>
80006e1c:	e59d3014 	ldr	r3, [r13, #20]
80006e20:	e3530000 	cmp	r3, #0
80006e24:	1affffa2 	bne	80006cb4 <DMACCErrorISR+0x74>
80006e28:	e28dd01c 	add	r13, r13, #28
80006e2c:	e8bd8030 	pop	{r4, r5, r15}
80006e30:	ebffebc3 	bl	80001d44 <DMAErrIntrHighStatusGet>
80006e34:	e58d0004 	str	r0, [r13, #4]
80006e38:	eaffffb4 	b	80006d10 <DMACCErrorISR+0xd0>
80006e3c:	e3a00449 	mov	r0, #1224736768	; 0x49000000
80006e40:	e3a01801 	mov	r1, #65536	; 0x10000
80006e44:	ebffeb43 	bl	80001b58 <DMAClrCCErr>
80006e48:	eaffffea 	b	80006df8 <DMACCErrorISR+0x1b8>
80006e4c:	e3a00449 	mov	r0, #1224736768	; 0x49000000
80006e50:	ebffebbd 	bl	80001d4c <DMAQdmaGetErrIntrStatus>
80006e54:	e3500000 	cmp	r0, #0
80006e58:	1affff8d 	bne	80006c94 <DMACCErrorISR+0x54>
80006e5c:	e3a00449 	mov	r0, #1224736768	; 0x49000000
80006e60:	ebffeba5 	bl	80001cfc <DMAGetCCErrStatus>
80006e64:	e3500000 	cmp	r0, #0
80006e68:	1affff89 	bne	80006c94 <DMACCErrorISR+0x54>
80006e6c:	eaffffed 	b	80006e28 <DMACCErrorISR+0x1e8>

80006e70 <mmc0_isr>:
80006e70:	e30d30e4 	movw	r3, #53476	; 0xd0e4
80006e74:	e3e01000 	mvn	r1, #0
80006e78:	e52de004 	push	{r14}		; (str r14, [r13, #-4]!)
80006e7c:	e3483001 	movt	r3, #32769	; 0x8001
80006e80:	e24dd00c 	sub	r13, r13, #12
80006e84:	e5930000 	ldr	r0, [r3]
80006e88:	e3a02000 	mov	r2, #0
80006e8c:	e58d2004 	str	r2, [r13, #4]
80006e90:	ebffef36 	bl	80002b70 <MMCIntrStatusGet>
80006e94:	e58d0004 	str	r0, [r13, #4]
80006e98:	e59d0004 	ldr	r0, [r13, #4]
80006e9c:	ebffe6d7 	bl	80000a00 <mmc0_clear_status>
80006ea0:	e59d3004 	ldr	r3, [r13, #4]
80006ea4:	e3130001 	tst	r3, #1
80006ea8:	130c3b00 	movwne	r3, #51968	; 0xcb00
80006eac:	13a02001 	movne	r2, #1
80006eb0:	13483001 	movtne	r3, #32769	; 0x8001
80006eb4:	15832004 	strne	r2, [r3, #4]
80006eb8:	e59d3004 	ldr	r3, [r13, #4]
80006ebc:	e3130902 	tst	r3, #32768	; 0x8000
80006ec0:	0a00000d 	beq	80006efc <mmc0_isr+0x8c>
80006ec4:	e59d3004 	ldr	r3, [r13, #4]
80006ec8:	e30c2b00 	movw	r2, #51968	; 0xcb00
80006ecc:	e3482001 	movt	r2, #32769	; 0x8001
80006ed0:	e1a03823 	lsr	r3, r3, #16
80006ed4:	e1a03803 	lsl	r3, r3, #16
80006ed8:	e5823114 	str	r3, [r2, #276]	; 0x114
80006edc:	e59d3004 	ldr	r3, [r13, #4]
80006ee0:	e3130801 	tst	r3, #65536	; 0x10000
80006ee4:	13a03001 	movne	r3, #1
80006ee8:	15823008 	strne	r3, [r2, #8]
80006eec:	e59d3004 	ldr	r3, [r13, #4]
80006ef0:	e3130601 	tst	r3, #1048576	; 0x100000
80006ef4:	13a03001 	movne	r3, #1
80006ef8:	15823010 	strne	r3, [r2, #16]
80006efc:	e59d3004 	ldr	r3, [r13, #4]
80006f00:	e3130002 	tst	r3, #2
80006f04:	130c3b00 	movwne	r3, #51968	; 0xcb00
80006f08:	13a02001 	movne	r2, #1
80006f0c:	13483001 	movtne	r3, #32769	; 0x8001
80006f10:	1583200c 	strne	r2, [r3, #12]
80006f14:	e59d3004 	ldr	r3, [r13, #4]
80006f18:	e3130040 	tst	r3, #64	; 0x40
80006f1c:	1a000015 	bne	80006f78 <mmc0_isr+0x108>
80006f20:	e59d3004 	ldr	r3, [r13, #4]
80006f24:	e3130080 	tst	r3, #128	; 0x80
80006f28:	0a000010 	beq	80006f70 <mmc0_isr+0x100>
80006f2c:	e30718c4 	movw	r1, #30916	; 0x78c4
80006f30:	e30c3b00 	movw	r3, #51968	; 0xcb00
80006f34:	e3481000 	movt	r1, #32768	; 0x8000
80006f38:	e3a02000 	mov	r2, #0
80006f3c:	e5911000 	ldr	r1, [r1]
80006f40:	e3483001 	movt	r3, #32769	; 0x8001
80006f44:	e5c12000 	strb	r2, [r1]
80006f48:	e5832000 	str	r2, [r3]
80006f4c:	e583200c 	str	r2, [r3, #12]
80006f50:	e5832010 	str	r2, [r3, #16]
80006f54:	e5832004 	str	r2, [r3, #4]
80006f58:	e5832008 	str	r2, [r3, #8]
80006f5c:	ebffe5d1 	bl	800006a8 <mmc0_init>
80006f60:	ebffe680 	bl	80000968 <mmc0_irq_enab>
80006f64:	e3070890 	movw	r0, #30864	; 0x7890
80006f68:	e3480000 	movt	r0, #32768	; 0x8000
80006f6c:	ebffe948 	bl	80001494 <ConsolePrintf>
80006f70:	e28dd00c 	add	r13, r13, #12
80006f74:	e49df004 	pop	{r15}		; (ldr r15, [r13], #4)
80006f78:	e30d109c 	movw	r1, #53404	; 0xd09c
80006f7c:	e59f2020 	ldr	r2, [pc, #32]	; 80006fa4 <mmc0_isr+0x134>
80006f80:	e3481001 	movt	r1, #32769	; 0x8001
80006f84:	e3a00000 	mov	r0, #0
80006f88:	ebfffdc0 	bl	80006690 <FATFsMount>
80006f8c:	e30703cc 	movw	r0, #29644	; 0x73cc
80006f90:	e3480000 	movt	r0, #32768	; 0x8000
80006f94:	ebffe93e 	bl	80001494 <ConsolePrintf>
80006f98:	e59f0004 	ldr	r0, [pc, #4]	; 80006fa4 <mmc0_isr+0x134>
80006f9c:	ebfffe0f 	bl	800067e0 <CmdLineProcess>
80006fa0:	eaffffde 	b	80006f20 <mmc0_isr+0xb0>
80006fa4:	8001cc18 	andhi	r12, r1, r8, lsl r12

80006fa8 <char_collect>:
80006fa8:	e3500008 	cmp	r0, #8
80006fac:	e92d4038 	push	{r3, r4, r5, r14}
80006fb0:	e1a03000 	mov	r3, r0
80006fb4:	0a000018 	beq	8000701c <char_collect+0x74>
80006fb8:	e350000d 	cmp	r0, #13
80006fbc:	1350000a 	cmpne	r0, #10
80006fc0:	0a00003c 	beq	800070b8 <char_collect+0x110>
80006fc4:	e350001b 	cmp	r0, #27
80006fc8:	13500015 	cmpne	r0, #21
80006fcc:	1a000017 	bne	80007030 <char_collect+0x88>
80006fd0:	e30d4110 	movw	r4, #53520	; 0xd110
80006fd4:	e3484001 	movt	r4, #32769	; 0x8001
80006fd8:	e5d43000 	ldrb	r3, [r4]
80006fdc:	e3530000 	cmp	r3, #0
80006fe0:	0a000008 	beq	80007008 <char_collect+0x60>
80006fe4:	e30708a8 	movw	r0, #30888	; 0x78a8
80006fe8:	e3480000 	movt	r0, #32768	; 0x8000
80006fec:	ebffe928 	bl	80001494 <ConsolePrintf>
80006ff0:	e5d43000 	ldrb	r3, [r4]
80006ff4:	e2433001 	sub	r3, r3, #1
80006ff8:	e6ef3073 	uxtb	r3, r3
80006ffc:	e5c43000 	strb	r3, [r4]
80007000:	e3530000 	cmp	r3, #0
80007004:	1afffff6 	bne	80006fe4 <char_collect+0x3c>
80007008:	e30c3b00 	movw	r3, #51968	; 0xcb00
8000700c:	e3a02000 	mov	r2, #0
80007010:	e3483001 	movt	r3, #32769	; 0x8001
80007014:	e5c32118 	strb	r2, [r3, #280]	; 0x118
80007018:	e8bd8038 	pop	{r3, r4, r5, r15}
8000701c:	e30d4110 	movw	r4, #53520	; 0xd110
80007020:	e3484001 	movt	r4, #32769	; 0x8001
80007024:	e5d42000 	ldrb	r2, [r4]
80007028:	e3520000 	cmp	r2, #0
8000702c:	1a000014 	bne	80007084 <char_collect+0xdc>
80007030:	e2432020 	sub	r2, r3, #32
80007034:	e352005e 	cmp	r2, #94	; 0x5e
80007038:	88bd8038 	pophi	{r3, r4, r5, r15}
8000703c:	e30dc110 	movw	r12, #53520	; 0xd110
80007040:	e30c2b00 	movw	r2, #51968	; 0xcb00
80007044:	e348c001 	movt	r12, #32769	; 0x8001
80007048:	e3482001 	movt	r2, #32769	; 0x8001
8000704c:	e5dc4000 	ldrb	r4, [r12]
80007050:	e30708ac 	movw	r0, #30892	; 0x78ac
80007054:	e3a05000 	mov	r5, #0
80007058:	e1a01003 	mov	r1, r3
8000705c:	e284e001 	add	r14, r4, #1
80007060:	e0824004 	add	r4, r2, r4
80007064:	e3480000 	movt	r0, #32768	; 0x8000
80007068:	e6efe07e 	uxtb	r14, r14
8000706c:	e5c43118 	strb	r3, [r4, #280]	; 0x118
80007070:	e082200e 	add	r2, r2, r14
80007074:	e5cce000 	strb	r14, [r12]
80007078:	e5c25118 	strb	r5, [r2, #280]	; 0x118
8000707c:	e8bd4038 	pop	{r3, r4, r5, r14}
80007080:	eaffe903 	b	80001494 <ConsolePrintf>
80007084:	e30708a8 	movw	r0, #30888	; 0x78a8
80007088:	e3480000 	movt	r0, #32768	; 0x8000
8000708c:	ebffe900 	bl	80001494 <ConsolePrintf>
80007090:	e5d43000 	ldrb	r3, [r4]
80007094:	e30c2b00 	movw	r2, #51968	; 0xcb00
80007098:	e3a01000 	mov	r1, #0
8000709c:	e2433001 	sub	r3, r3, #1
800070a0:	e3482001 	movt	r2, #32769	; 0x8001
800070a4:	e6ef3073 	uxtb	r3, r3
800070a8:	e5c43000 	strb	r3, [r4]
800070ac:	e0823003 	add	r3, r2, r3
800070b0:	e5c31118 	strb	r1, [r3, #280]	; 0x118
800070b4:	e8bd8038 	pop	{r3, r4, r5, r15}
800070b8:	e30703cc 	movw	r0, #29644	; 0x73cc
800070bc:	e30c4b00 	movw	r4, #51968	; 0xcb00
800070c0:	e3480000 	movt	r0, #32768	; 0x8000
800070c4:	e3484001 	movt	r4, #32769	; 0x8001
800070c8:	ebffe8f1 	bl	80001494 <ConsolePrintf>
800070cc:	e2840f46 	add	r0, r4, #280	; 0x118
800070d0:	ebfffdc2 	bl	800067e0 <CmdLineProcess>
800070d4:	e30d3110 	movw	r3, #53520	; 0xd110
800070d8:	e3483001 	movt	r3, #32769	; 0x8001
800070dc:	e3a02000 	mov	r2, #0
800070e0:	e5c42118 	strb	r2, [r4, #280]	; 0x118
800070e4:	e5c32000 	strb	r2, [r3]
800070e8:	e8bd8038 	pop	{r3, r4, r5, r15}

800070ec <main>:
800070ec:	e92d47f0 	push	{r4, r5, r6, r7, r8, r9, r10, r14}
800070f0:	e24dd010 	sub	r13, r13, #16
800070f4:	e3a05000 	mov	r5, #0
800070f8:	e30c4b00 	movw	r4, #51968	; 0xcb00
800070fc:	e58d500c 	str	r5, [r13, #12]
80007100:	ebffe7f8 	bl	800010e8 <cache_en>
80007104:	ebffe7dd 	bl	80001080 <mclk_1GHz>
80007108:	e3a00903 	mov	r0, #49152	; 0xc000
8000710c:	e3a0161e 	mov	r1, #31457280	; 0x1e00000
80007110:	e3440804 	movt	r0, #18436	; 0x4804
80007114:	ebffe4a8 	bl	800003bc <gpio_init>
80007118:	e3484001 	movt	r4, #32769	; 0x8001
8000711c:	ebffe4fb 	bl	80000510 <uart0_init>
80007120:	e30688a8 	movw	r8, #26792	; 0x68a8
80007124:	ebffe683 	bl	80000b38 <tim_init>
80007128:	e3488000 	movt	r8, #32768	; 0x8000
8000712c:	ebffe64c 	bl	80000a64 <rtc_init>
80007130:	e30d909c 	movw	r9, #53404	; 0xd09c
80007134:	ebffe3cb 	bl	80000068 <irq_init>
80007138:	e3489001 	movt	r9, #32769	; 0x8001
8000713c:	ebffe966 	bl	800016dc <mmu_init>
80007140:	e3a0a005 	mov	r10, #5
80007144:	ebffece2 	bl	800024d4 <dma_clk_cfg>
80007148:	e1a01005 	mov	r1, r5
8000714c:	e3a00449 	mov	r0, #1224736768	; 0x49000000
80007150:	e30075e0 	movw	r7, #1504	; 0x5e0
80007154:	ebffe995 	bl	800017b0 <DMAInit>
80007158:	e3a02018 	mov	r2, #24
8000715c:	e1a03002 	mov	r3, r2
80007160:	e1a01005 	mov	r1, r5
80007164:	e58d5000 	str	r5, [r13]
80007168:	e3a00449 	mov	r0, #1224736768	; 0x49000000
8000716c:	ebffeb6d 	bl	80001f28 <DMARequestChannel>
80007170:	e3a02019 	mov	r2, #25
80007174:	e1a03002 	mov	r3, r2
80007178:	e1a01005 	mov	r1, r5
8000717c:	e58d5000 	str	r5, [r13]
80007180:	e3a00449 	mov	r0, #1224736768	; 0x49000000
80007184:	e5848074 	str	r8, [r4, #116]	; 0x74
80007188:	ebffeb66 	bl	80001f28 <DMARequestChannel>
8000718c:	e3a01030 	mov	r1, #48	; 0x30
80007190:	e3a00e8f 	mov	r0, #2288	; 0x8f0
80007194:	e5848078 	str	r8, [r4, #120]	; 0x78
80007198:	ebffe521 	bl	80000624 <pinmux>
8000719c:	e3a01030 	mov	r1, #48	; 0x30
800071a0:	e30008f4 	movw	r0, #2292	; 0x8f4
800071a4:	ebffe51e 	bl	80000624 <pinmux>
800071a8:	e3a01030 	mov	r1, #48	; 0x30
800071ac:	e30008f8 	movw	r0, #2296	; 0x8f8
800071b0:	e30065e4 	movw	r6, #1508	; 0x5e4
800071b4:	ebffe51a 	bl	80000624 <pinmux>
800071b8:	e3a01030 	mov	r1, #48	; 0x30
800071bc:	e30008fc 	movw	r0, #2300	; 0x8fc
800071c0:	e30f8fff 	movw	r8, #65535	; 0xffff
800071c4:	ebffe516 	bl	80000624 <pinmux>
800071c8:	e3a01030 	mov	r1, #48	; 0x30
800071cc:	e3a00c09 	mov	r0, #2304	; 0x900
800071d0:	e3487000 	movt	r7, #32768	; 0x8000
800071d4:	ebffe512 	bl	80000624 <pinmux>
800071d8:	e3a01030 	mov	r1, #48	; 0x30
800071dc:	e3000904 	movw	r0, #2308	; 0x904
800071e0:	e3486000 	movt	r6, #32768	; 0x8000
800071e4:	ebffe50e 	bl	80000624 <pinmux>
800071e8:	e3a01035 	mov	r1, #53	; 0x35
800071ec:	e3a00e96 	mov	r0, #2400	; 0x960
800071f0:	e3408007 	movt	r8, #7
800071f4:	ebffe50a 	bl	80000624 <pinmux>
800071f8:	e30d30e4 	movw	r3, #53476	; 0xd0e4
800071fc:	e3483001 	movt	r3, #32769	; 0x8001
80007200:	e1a0c005 	mov	r12, r5
80007204:	e3a00003 	mov	r0, #3
80007208:	e3a01b36 	mov	r1, #55296	; 0xd800
8000720c:	e3a02d6a 	mov	r2, #6784	; 0x1a80
80007210:	e5845000 	str	r5, [r4]
80007214:	e3a0e001 	mov	r14, #1
80007218:	e584500c 	str	r5, [r4, #12]
8000721c:	e583e018 	str	r14, [r3, #24]
80007220:	e34015b8 	movt	r1, #1464	; 0x5b8
80007224:	e3402006 	movt	r2, #6
80007228:	e5845010 	str	r5, [r4, #16]
8000722c:	e9830006 	stmib	r3, {r1, r2}
80007230:	e344c806 	movt	r12, #18438	; 0x4806
80007234:	e583a014 	str	r10, [r3, #20]
80007238:	e3400011 	movt	r0, #17
8000723c:	e583c000 	str	r12, [r3]
80007240:	e3a0c703 	mov	r12, #786432	; 0xc0000
80007244:	e583000c 	str	r0, [r3, #12]
80007248:	e3a00006 	mov	r0, #6
8000724c:	e583c01c 	str	r12, [r3, #28]
80007250:	e5830020 	str	r0, [r3, #32]
80007254:	e5839028 	str	r9, [r3, #40]	; 0x28
80007258:	e5893000 	str	r3, [r9]
8000725c:	e5845004 	str	r5, [r4, #4]
80007260:	e5845008 	str	r5, [r4, #8]
80007264:	ebffe50f 	bl	800006a8 <mmc0_init>
80007268:	ebffe5be 	bl	80000968 <mmc0_irq_enab>
8000726c:	e1a02004 	mov	r2, r4
80007270:	e30d3110 	movw	r3, #53520	; 0xd110
80007274:	e1a01009 	mov	r1, r9
80007278:	e3483001 	movt	r3, #32769	; 0x8001
8000727c:	e5e25118 	strb	r5, [r2, #280]!	; 0x118
80007280:	e1a00005 	mov	r0, r5
80007284:	e5c35000 	strb	r5, [r3]
80007288:	ebfffd00 	bl	80006690 <FATFsMount>
8000728c:	e30708b0 	movw	r0, #30896	; 0x78b0
80007290:	e3480000 	movt	r0, #32768	; 0x8000
80007294:	ebffe87e 	bl	80001494 <ConsolePrintf>
80007298:	e2840f46 	add	r0, r4, #280	; 0x118
8000729c:	ebfffd4f 	bl	800067e0 <CmdLineProcess>
800072a0:	e30c5b00 	movw	r5, #51968	; 0xcb00
800072a4:	e3485001 	movt	r5, #32769	; 0x8001
800072a8:	ea00000a 	b	800072d8 <main+0x1ec>
800072ac:	e59d300c 	ldr	r3, [r13, #12]
800072b0:	e1530008 	cmp	r3, r8
800072b4:	0a000011 	beq	80007300 <main+0x214>
800072b8:	e5971000 	ldr	r1, [r7]
800072bc:	e5942318 	ldr	r2, [r4, #792]	; 0x318
800072c0:	e59d300c 	ldr	r3, [r13, #12]
800072c4:	e1520001 	cmp	r2, r1
800072c8:	e2833001 	add	r3, r3, #1
800072cc:	e7f63053 	ubfx	r3, r3, #0, #23
800072d0:	e58d300c 	str	r3, [r13, #12]
800072d4:	1a00000e 	bne	80007314 <main+0x228>
800072d8:	e59d300c 	ldr	r3, [r13, #12]
800072dc:	e3530000 	cmp	r3, #0
800072e0:	1afffff1 	bne	800072ac <main+0x1c0>
800072e4:	e3a00903 	mov	r0, #49152	; 0xc000
800072e8:	e3a01602 	mov	r1, #2097152	; 0x200000
800072ec:	e3440804 	movt	r0, #18436	; 0x4804
800072f0:	ebffe45a 	bl	80000460 <gpio_on>
800072f4:	e59d300c 	ldr	r3, [r13, #12]
800072f8:	e1530008 	cmp	r3, r8
800072fc:	1affffed 	bne	800072b8 <main+0x1cc>
80007300:	e3a00903 	mov	r0, #49152	; 0xc000
80007304:	e3a01602 	mov	r1, #2097152	; 0x200000
80007308:	e3440804 	movt	r0, #18436	; 0x4804
8000730c:	ebffe455 	bl	80000468 <gpio_off>
80007310:	eaffffe8 	b	800072b8 <main+0x1cc>
80007314:	e5960000 	ldr	r0, [r6]
80007318:	e30095e4 	movw	r9, #1508	; 0x5e4
8000731c:	e3c11102 	bic	r1, r1, #-2147483648	; 0x80000000
80007320:	e3489000 	movt	r9, #32768	; 0x8000
80007324:	e3500000 	cmp	r0, #0
80007328:	e5851318 	str	r1, [r5, #792]	; 0x318
8000732c:	0affffe9 	beq	800072d8 <main+0x1ec>
80007330:	e6ef0070 	uxtb	r0, r0
80007334:	ebffff1b 	bl	80006fa8 <char_collect>
80007338:	e3a03000 	mov	r3, #0
8000733c:	e5893000 	str	r3, [r9]
80007340:	eaffffd6 	b	800072a0 <main+0x1b4>

Disassembly of section .rodata:

80007344 <.LANCHOR0>:
80007344:	fff04002 			; <UNDEFINED> instruction: 0xfff04002
80007348:	80000000 	andhi	r0, r0, r0
8000734c:	00000200 	andeq	r0, r0, r0, lsl #4
80007350:	00005008 	andeq	r5, r0, r8
80007354:	00080000 	andeq	r0, r8, r0
80007358:	00000c00 	andeq	r0, r0, r0, lsl #24
8000735c:	80008000 	andhi	r8, r0, r0
80007360:	fff04002 			; <UNDEFINED> instruction: 0xfff04002
80007364:	40300000 	eorsmi	r0, r0, r0
80007368:	00000001 	andeq	r0, r0, r1
8000736c:	00005008 	andeq	r5, r0, r8
80007370:	00080000 	andeq	r0, r8, r0
80007374:	00000c00 	andeq	r0, r0, r0, lsl #24
80007378:	80008000 	andhi	r8, r0, r0
8000737c:	fff04002 			; <UNDEFINED> instruction: 0xfff04002
80007380:	44000000 	strmi	r0, [r0], #-0
80007384:	000003c0 	andeq	r0, r0, r0, asr #7
80007388:	00000004 	andeq	r0, r0, r4
8000738c:	00080000 	andeq	r0, r8, r0
80007390:	00000c10 	andeq	r0, r0, r0, lsl r12
80007394:	80008000 	andhi	r8, r0, r0
80007398:	fff04002 			; <UNDEFINED> instruction: 0xfff04002
8000739c:	00020000 	andeq	r0, r2, r0
800073a0:	00000001 	andeq	r0, r0, r1
800073a4:	00005008 	andeq	r5, r0, r8
800073a8:	00080000 	andeq	r0, r8, r0
800073ac:	00000c00 	andeq	r0, r0, r0, lsl #24
800073b0:	80008000 	andhi	r8, r0, r0

800073b4 <.LANCHOR3>:
800073b4:	00000000 	andeq	r0, r0, r0

Disassembly of section .rodata.str1.4:

800073b8 <.rodata.str1.4>:
800073b8:	61430a0d 	cmpvs	r3, r13, lsl #20
800073bc:	49206472 	stmdbmi	r0!, {r1, r4, r5, r6, r10, r13, r14}
800073c0:	2074696e 	rsbscs	r6, r4, r14, ror #18
800073c4:	6c696146 	stfvse	f6, [r9], #-280	; 0xfffffee8
800073c8:	0d206465 	cfstrseq	mvf6, [r0, #-404]!	; 0xfffffe6c
800073cc:	0000000a 	andeq	r0, r0, r10
800073d0:	2044530a 	subcs	r5, r4, r10, lsl #6
800073d4:	64726143 	ldrbtvs	r6, [r2], #-323	; 0xfffffebd
800073d8:	72657620 	rsbvc	r7, r5, #32, 12	; 0x2000000
800073dc:	6e6f6973 	mcrvs	9, 3, r6, cr15, cr3, {3}
800073e0:	00642520 	rsbeq	r2, r4, r0, lsr #10
800073e4:	67696820 	strbvs	r6, [r9, -r0, lsr #16]!
800073e8:	61632068 	cmnvs	r3, r8, rrx
800073ec:	69636170 	stmdbvs	r3!, {r4, r5, r6, r8, r13, r14}^
800073f0:	00007974 	andeq	r7, r0, r4, ror r9
800073f4:	67696820 	strbvs	r6, [r9, -r0, lsr #16]!
800073f8:	70732068 	rsbsvc	r2, r3, r8, rrx
800073fc:	00646565 	rsbeq	r6, r4, r5, ror #10
80007400:	00000a0a 	andeq	r0, r0, r10, lsl #20
80007404:	434d4d0a 	movtmi	r4, #56586	; 0xdd0a
80007408:	72614320 	rsbvc	r4, r1, #32, 6	; 0x80000000
8000740c:	00000a64 	andeq	r0, r0, r4, ror #20
80007410:	00544146 	subseq	r4, r4, r6, asr #2
80007414:	33544146 	cmpcc	r4, #-2147483631	; 0x80000011
80007418:	00000032 	andeq	r0, r0, r2, lsr r0
8000741c:	6d6d6f43 	stclvs	15, cr6, [r13, #-268]!	; 0xfffffef4
80007420:	20646e61 	rsbcs	r6, r4, r1, ror #28
80007424:	7473696c 	ldrbtvc	r6, [r3], #-2412	; 0xfffff694
80007428:	0000000a 	andeq	r0, r0, r10
8000742c:	2d2d2d2d 	stccs	13, cr2, [r13, #-180]!	; 0xffffff4c
80007430:	2d2d2d2d 	stccs	13, cr2, [r13, #-180]!	; 0xffffff4c
80007434:	2d2d2d2d 	stccs	13, cr2, [r13, #-180]!	; 0xffffff4c
80007438:	0000000a 	andeq	r0, r0, r10
8000743c:	73257325 	teqvc	r5, #-1811939328	; 0x94000000
80007440:	0000000a 	andeq	r0, r0, r10
80007444:	75736552 	ldrbvc	r6, [r3, #-1362]!	; 0xfffffaae
80007448:	6e69746c 	cdpvs	4, 6, cr7, cr9, cr12, {3}
8000744c:	61702067 	cmnvs	r0, r7, rrx
80007450:	6e206874 	mcrvs	8, 1, r6, cr0, cr4, {3}
80007454:	20656d61 	rsbcs	r6, r5, r1, ror #26
80007458:	206f6f74 	rsbcs	r6, r15, r4, ror r15	; <UNPREDICTABLE>
8000745c:	676e6f6c 	strbvs	r6, [r14, -r12, ror #30]!
80007460:	0000000a 	andeq	r0, r0, r10
80007464:	6e6e6143 	powvsem	f6, f6, f3
80007468:	6420746f 	strtvs	r7, [r0], #-1135	; 0xfffffb91
8000746c:	74656c65 	strbtvc	r6, [r5], #-3173	; 0xfffff39b
80007470:	61702065 	cmnvs	r0, r5, rrx
80007474:	746e6572 	strbtvc	r6, [r14], #-1394	; 0xfffffa8e
80007478:	72696420 	rsbvc	r6, r9, #32, 8	; 0x20000000
8000747c:	6f746365 	svcvs	0x00746365
80007480:	0a207972 	beq	80825a50 <__bss_end__+0x80893f>
80007484:	00000000 	andeq	r0, r0, r0
80007488:	75736552 	ldrbvc	r6, [r3, #-1362]!	; 0xfffffaae
8000748c:	6e69746c 	cdpvs	4, 6, cr7, cr9, cr12, {3}
80007490:	61702067 	cmnvs	r0, r7, rrx
80007494:	6e206874 	mcrvs	8, 1, r6, cr0, cr4, {3}
80007498:	20656d61 	rsbcs	r6, r5, r1, ror #26
8000749c:	74207369 	strtvc	r7, [r0], #-873	; 0xfffffc97
800074a0:	6c206f6f 	stcvs	15, cr6, [r0], #-444	; 0xfffffe44
800074a4:	0a676e6f 	beq	819e2e68 <__bss_end__+0x19c5d57>
800074a8:	00000000 	andeq	r0, r0, r0
800074ac:	0000002f 	andeq	r0, r0, r15, lsr #32
800074b0:	203a6d72 	eorscs	r6, r10, r2, ror r13
800074b4:	000a7325 	andeq	r7, r10, r5, lsr #6
800074b8:	203a6463 	eorscs	r6, r10, r3, ror #8
800074bc:	000a7325 	andeq	r7, r10, r5, lsr #6
800074c0:	69646b6d 	stmdbvs	r4!, {r0, r2, r3, r5, r6, r8, r9, r11, r13, r14}^
800074c4:	25203a72 	strcs	r3, [r0, #-2674]!	; 0xfffff58e
800074c8:	00000a73 	andeq	r0, r0, r3, ror r10
800074cc:	2e766564 	cdpcs	5, 7, cr6, cr6, cr4, {3}
800074d0:	54524155 	ldrbpl	r4, [r2], #-341	; 0xfffffeab
800074d4:	00000000 	andeq	r0, r0, r0
800074d8:	6f6d580a 	svcvs	0x006d580a
800074dc:	206d6564 	rsbcs	r6, r13, r4, ror #10
800074e0:	65636572 	strbvs	r6, [r3, #-1394]!	; 0xfffffa8e
800074e4:	20657669 	rsbcs	r7, r5, r9, ror #12
800074e8:	6f727265 	svcvs	0x00727265
800074ec:	00000a72 	andeq	r0, r0, r2, ror r10
800074f0:	6f4e200a 	svcvs	0x004e200a
800074f4:	666f202e 	strbtvs	r2, [r15], -r14, lsr #32
800074f8:	65746920 	ldrbvs	r6, [r4, #-2336]!	; 0xfffff6e0
800074fc:	69746172 	ldmdbvs	r4!, {r1, r4, r5, r6, r8, r13, r14}^
80007500:	3a736e6f 	bcc	81ce2ec4 <__bss_end__+0x1cc5db3>
80007504:	00000020 	andeq	r0, r0, r0, lsr #32
80007508:	5252450a 	subspl	r4, r2, #41943040	; 0x2800000
8000750c:	203a524f 	eorscs	r5, r10, r15, asr #4
80007510:	61766e49 	cmnvs	r6, r9, asr #28
80007514:	2064696c 	rsbcs	r6, r4, r12, ror #18
80007518:	72746e65 	rsbsvc	r6, r4, #1616	; 0x650
8000751c:	0a212179 	beq	8084fb08 <__bss_end__+0x8329f7>
80007520:	00000000 	andeq	r0, r0, r0
80007524:	656c500a 	strbvs	r5, [r12, #-10]!
80007528:	20657361 	rsbcs	r7, r5, r1, ror #6
8000752c:	766f7270 			; <UNDEFINED> instruction: 0x766f7270
80007530:	20656469 	rsbcs	r6, r5, r9, ror #8
80007534:	74786574 	ldrbtvc	r6, [r8], #-1396	; 0xfffffa8c
80007538:	6c696620 	stclvs	6, cr6, [r9], #-128	; 0xffffff80
8000753c:	4d282065 	stcmi	0, cr2, [r8, #-404]!	; 0xfffffe6c
80007540:	6f207861 	svcvs	0x00207861
80007544:	00002066 	andeq	r2, r0, r6, rrx
80007548:	4b206425 	blmi	808205e4 <__bss_end__+0x8034d3>
8000754c:	65747962 	ldrbvs	r7, [r4, #-2402]!	; 0xfffff69e
80007550:	0a3a2973 	beq	80e91b24 <__bss_end__+0xe74a13>
80007554:	00000000 	andeq	r0, r0, r0
80007558:	252f6425 	strcs	r6, [pc, #-1061]!	; 8000713b <main+0x4f>
8000755c:	64252f64 	strtvs	r2, [r5], #-3940	; 0xfffff09c
80007560:	3a642520 	bcc	819109e8 <__bss_end__+0x18f38d7>
80007564:	253a6425 	ldrcs	r6, [r10, #-1061]!	; 0xfffffbdb
80007568:	20202064 	eorcs	r2, r0, r4, rrx
8000756c:	00000020 	andeq	r0, r0, r0, lsr #32
80007570:	0a726964 	beq	81ca1b08 <__bss_end__+0x1c849f7>
80007574:	00000000 	andeq	r0, r0, r0
80007578:	62206425 	eorvs	r6, r0, #620756992	; 0x25000000
8000757c:	73657479 	cmnvc	r5, #2030043136	; 0x79000000
80007580:	0000000a 	andeq	r0, r0, r10
80007584:	4e4b4e55 	mcrmi	14, 2, r4, cr11, cr5, {2}
80007588:	204e574f 	subcs	r5, r14, r15, asr #14
8000758c:	4f525245 	svcmi	0x00525245
80007590:	4f432052 	svcmi	0x00432052
80007594:	00004544 	andeq	r4, r0, r4, asr #10
80007598:	65726e55 	ldrbvs	r6, [r2, #-3669]!	; 0xfffff1ab
8000759c:	6e676f63 	cdpvs	15, 6, cr6, cr7, cr3, {3}
800075a0:	64657a69 	strbtvs	r7, [r5], #-2665	; 0xfffff597
800075a4:	6d6f6320 	stclvs	3, cr6, [r15, #-128]!	; 8000752c <.LANCHOR3+0x178>
800075a8:	646e616d 	strbtvs	r6, [r14], #-365	; 0xfffffe93
800075ac:	0000000a 	andeq	r0, r0, r10
800075b0:	206f6f54 	rsbcs	r6, r15, r4, asr r15	; <UNPREDICTABLE>
800075b4:	796e616d 	stmdbvc	r14!, {r0, r2, r3, r5, r6, r8, r13, r14}^
800075b8:	67726120 	ldrbvs	r6, [r2, -r0, lsr #2]!
800075bc:	6e656d75 	mcrvs	13, 3, r6, cr5, cr5, {3}
800075c0:	000a7374 	andeq	r7, r10, r4, ror r3
800075c4:	6d6d6f43 	stclvs	15, cr6, [r13, #-268]!	; 0xfffffef4
800075c8:	20646e61 	rsbcs	r6, r4, r1, ror #28
800075cc:	75746572 	ldrbvc	r6, [r4, #-1394]!	; 0xfffffa8e
800075d0:	65206e72 	strvs	r6, [r0, #-3698]!	; 0xfffff18e
800075d4:	726f7272 	rsbvc	r7, r15, #536870919	; 0x20000007
800075d8:	0a732520 	beq	81cd0a60 <__bss_end__+0x1cb394f>
800075dc:	00000000 	andeq	r0, r0, r0
800075e0:	203e7325 	eorscs	r7, r14, r5, lsr #6
800075e4:	00007325 	andeq	r7, r0, r5, lsr #6
800075e8:	44203a20 	strtmi	r3, [r0], #-2592	; 0xfffff5e0
800075ec:	6c707369 	ldclvs	3, cr7, [r0], #-420	; 0xfffffe5c
800075f0:	6c207961 	stcvs	9, cr7, [r0], #-388	; 0xfffffe7c
800075f4:	20747369 	rsbscs	r7, r4, r9, ror #6
800075f8:	6320666f 	teqvs	r0, #116391936	; 0x6f00000
800075fc:	616d6d6f 	cmnvs	r13, r15, ror #26
80007600:	0073646e 	rsbseq	r6, r3, r14, ror #8
80007604:	00000068 	andeq	r0, r0, r8, rrx
80007608:	20202020 	eorcs	r2, r0, r0, lsr #32
8000760c:	6c61203a 	stclvs	0, cr2, [r1], #-232	; 0xffffff18
80007610:	20736169 	rsbscs	r6, r3, r9, ror #2
80007614:	20726f66 	rsbscs	r6, r2, r6, ror #30
80007618:	706c6568 	rsbvc	r6, r12, r8, ror #10
8000761c:	00000000 	andeq	r0, r0, r0
80007620:	0000003f 	andeq	r0, r0, r15, lsr r0
80007624:	0000736c 	andeq	r7, r0, r12, ror #6
80007628:	3a202020 	bcc	8080f6b0 <__bss_end__+0x7f259f>
8000762c:	73694420 	cmnvc	r9, #32, 8	; 0x20000000
80007630:	79616c70 	stmdbvc	r1!, {r4, r5, r6, r10, r11, r13, r14}^
80007634:	73696c20 	cmnvc	r9, #32, 24	; 0x2000
80007638:	666f2074 			; <UNDEFINED> instruction: 0x666f2074
8000763c:	6c696620 	stclvs	6, cr6, [r9], #-128	; 0xffffff80
80007640:	00007365 	andeq	r7, r0, r5, ror #6
80007644:	69646863 	stmdbvs	r4!, {r0, r1, r5, r6, r11, r13, r14}^
80007648:	00000072 	andeq	r0, r0, r2, ror r0
8000764c:	6843203a 	stmdavs	r3, {r1, r3, r4, r5, r13}^
80007650:	65676e61 	strbvs	r6, [r7, #-3681]!	; 0xfffff19f
80007654:	72696420 	rsbvc	r6, r9, #32, 8	; 0x20000000
80007658:	6f746365 	svcvs	0x00746365
8000765c:	00007972 	andeq	r7, r0, r2, ror r9
80007660:	69646b6d 	stmdbvs	r4!, {r0, r2, r3, r5, r6, r8, r9, r11, r13, r14}^
80007664:	00000072 	andeq	r0, r0, r2, ror r0
80007668:	7243203a 	subvc	r2, r3, #58	; 0x3a
8000766c:	65746165 	ldrbvs	r6, [r4, #-357]!	; 0xfffffe9b
80007670:	72696420 	rsbvc	r6, r9, #32, 8	; 0x20000000
80007674:	6f746365 	svcvs	0x00746365
80007678:	00007972 	andeq	r7, r0, r2, ror r9
8000767c:	00006463 	andeq	r6, r0, r3, ror #8
80007680:	3a202020 	bcc	8080f708 <__bss_end__+0x7f25f7>
80007684:	696c6120 	stmdbvs	r12!, {r5, r8, r13, r14}^
80007688:	66207361 	strtvs	r7, [r0], -r1, ror #6
8000768c:	6320726f 	teqvs	r0, #-268435450	; 0xf0000006
80007690:	72696468 	rsbvc	r6, r9, #104, 8	; 0x68000000
80007694:	00000000 	andeq	r0, r0, r0
80007698:	00647770 	rsbeq	r7, r4, r0, ror r7
8000769c:	203a2020 	eorscs	r2, r10, r0, lsr #32
800076a0:	776f6853 			; <UNDEFINED> instruction: 0x776f6853
800076a4:	72756320 	rsbsvc	r6, r5, #32, 6	; 0x80000000
800076a8:	746e6572 	strbtvc	r6, [r14], #-1394	; 0xfffffa8e
800076ac:	726f7720 	rsbvc	r7, r15, #32, 14	; 0x800000
800076b0:	676e696b 	strbvs	r6, [r14, -r11, ror #18]!
800076b4:	72696420 	rsbvc	r6, r9, #32, 8	; 0x20000000
800076b8:	6f746365 	svcvs	0x00746365
800076bc:	00007972 	andeq	r7, r0, r2, ror r9
800076c0:	00746163 	rsbseq	r6, r4, r3, ror #2
800076c4:	203a2020 	eorscs	r2, r10, r0, lsr #32
800076c8:	776f6853 			; <UNDEFINED> instruction: 0x776f6853
800076cc:	6e6f6320 	cdpvs	3, 6, cr6, cr15, cr0, {1}
800076d0:	746e6574 	strbtvc	r6, [r14], #-1396	; 0xfffffa8c
800076d4:	666f2073 			; <UNDEFINED> instruction: 0x666f2073
800076d8:	74206120 	strtvc	r6, [r0], #-288	; 0xfffffee0
800076dc:	20747865 	rsbscs	r7, r4, r5, ror #16
800076e0:	656c6966 	strbvs	r6, [r12, #-2406]!	; 0xfffff69a
800076e4:	63203a20 	teqvs	r0, #32, 20	; 0x20000
800076e8:	3c207461 	cfstrscc	mvf7, [r0], #-388	; 0xfffffe7c
800076ec:	454c4946 	strbmi	r4, [r12, #-2374]	; 0xfffff6ba
800076f0:	454d414e 	strbmi	r4, [r13, #-334]	; 0xfffffeb2
800076f4:	200a203e 	andcs	r2, r10, r14, lsr r0
800076f8:	20202020 	eorcs	r2, r0, r0, lsr #32
800076fc:	72572020 	subsvc	r2, r7, #32
80007700:	20657469 	rsbcs	r7, r5, r9, ror #8
80007704:	61206f74 	teqvs	r0, r4, ror r15
80007708:	6c696620 	stclvs	6, cr6, [r9], #-128	; 0xffffff80
8000770c:	203a2065 	eorscs	r2, r10, r5, rrx
80007710:	20746163 	rsbscs	r6, r4, r3, ror #2
80007714:	504e493c 	subpl	r4, r14, r12, lsr r9
80007718:	49465455 	stmdbmi	r6, {r0, r2, r4, r6, r10, r12, r14}^
8000771c:	203e454c 	eorscs	r4, r14, r12, asr #10
80007720:	4f3c203e 	svcmi	0x003c203e
80007724:	55505455 	ldrbpl	r5, [r0, #-1109]	; 0xfffffbab
80007728:	4c494654 	mcrrmi	6, 5, r4, r9, cr4
8000772c:	0a203e45 	beq	80817048 <__bss_end__+0x7f9f37>
80007730:	20202020 	eorcs	r2, r0, r0, lsr #32
80007734:	52202020 	eorpl	r2, r0, #32
80007738:	20646165 	rsbcs	r6, r4, r5, ror #2
8000773c:	6d6f7266 	sfmvs	f7, 2, [r15, #-408]!	; 800075ac <.LANCHOR3+0x1f8>
80007740:	52415520 	subpl	r5, r1, #32, 10	; 0x8000000
80007744:	203a2054 	eorscs	r2, r10, r4, asr r0
80007748:	20746163 	rsbscs	r6, r4, r3, ror #2
8000774c:	2e766564 	cdpcs	5, 7, cr6, cr6, cr4, {3}
80007750:	54524155 	ldrbpl	r4, [r2], #-341	; 0xfffffeab
80007754:	20200a20 	eorcs	r0, r0, r0, lsr #20
80007758:	20202020 	eorcs	r2, r0, r0, lsr #32
8000775c:	69725720 	ldmdbvs	r2!, {r5, r8, r9, r10, r12, r14}^
80007760:	66206574 			; <UNDEFINED> instruction: 0x66206574
80007764:	206d6f72 	rsbcs	r6, r13, r2, ror r15
80007768:	54524155 	ldrbpl	r4, [r2], #-341	; 0xfffffeab
8000776c:	63203a20 	teqvs	r0, #32, 20	; 0x20000
80007770:	64207461 	strtvs	r7, [r0], #-1121	; 0xfffffb9f
80007774:	552e7665 	strpl	r7, [r14, #-1637]!	; 0xfffff99b
80007778:	20545241 	subscs	r5, r4, r1, asr #4
8000777c:	4f3c203e 	svcmi	0x003c203e
80007780:	55505455 	ldrbpl	r5, [r0, #-1109]	; 0xfffffbab
80007784:	4c494654 	mcrrmi	6, 5, r4, r9, cr4
80007788:	00003e45 	andeq	r3, r0, r5, asr #28
8000778c:	00006d72 	andeq	r6, r0, r2, ror r13
80007790:	3a202020 	bcc	8080f818 <__bss_end__+0x7f2707>
80007794:	6c654420 	cfstrdvs	mvd4, [r5], #-128	; 0xffffff80
80007798:	20657465 	rsbcs	r7, r5, r5, ror #8
8000779c:	69662061 	stmdbvs	r6!, {r0, r5, r6, r13}^
800077a0:	6f20656c 	svcvs	0x0020656c
800077a4:	6e612072 	mcrvs	0, 3, r2, cr1, cr2, {3}
800077a8:	706d6520 	rsbvc	r6, r13, r0, lsr #10
800077ac:	64207974 	strtvs	r7, [r0], #-2420	; 0xfffff68c
800077b0:	63657269 	cmnvs	r5, #-1879048186	; 0x90000006
800077b4:	79726f74 	ldmdbvc	r2!, {r2, r4, r5, r6, r8, r9, r10, r11, r13, r14}^
800077b8:	00000000 	andeq	r0, r0, r0
800077bc:	4f5f5246 	svcmi	0x005f5246
800077c0:	0000004b 	andeq	r0, r0, r11, asr #32
800077c4:	4e5f5246 	cdpmi	2, 5, cr5, cr15, cr6, {2}
800077c8:	525f544f 	subspl	r5, r15, #1325400064	; 0x4f000000
800077cc:	59444145 	stmdbpl	r4, {r0, r2, r6, r8, r14}^
800077d0:	00000000 	andeq	r0, r0, r0
800077d4:	4e5f5246 	cdpmi	2, 5, cr5, cr15, cr6, {2}
800077d8:	49465f4f 	stmdbmi	r6, {r0, r1, r2, r3, r6, r8, r9, r10, r11, r12, r14}^
800077dc:	0000454c 	andeq	r4, r0, r12, asr #10
800077e0:	4e5f5246 	cdpmi	2, 5, cr5, cr15, cr6, {2}
800077e4:	41505f4f 	cmpmi	r0, r15, asr #30
800077e8:	00004854 	andeq	r4, r0, r4, asr r8
800077ec:	495f5246 	ldmdbmi	r15, {r1, r2, r6, r9, r12, r14}^	; <UNPREDICTABLE>
800077f0:	4c41564e 	mcrrmi	6, 4, r5, r1, cr14
800077f4:	4e5f4449 	cdpmi	4, 5, cr4, cr15, cr9, {2}
800077f8:	00454d41 	subeq	r4, r5, r1, asr #26
800077fc:	495f5246 	ldmdbmi	r15, {r1, r2, r6, r9, r12, r14}^	; <UNPREDICTABLE>
80007800:	4c41564e 	mcrrmi	6, 4, r5, r1, cr14
80007804:	445f4449 	ldrbmi	r4, [pc], #-1097	; 8000780c <.LANCHOR3+0x458>
80007808:	45564952 	ldrbmi	r4, [r6, #-2386]	; 0xfffff6ae
8000780c:	00000000 	andeq	r0, r0, r0
80007810:	445f5246 	ldrbmi	r5, [pc], #-582	; 80007818 <.LANCHOR3+0x464>
80007814:	45494e45 	strbmi	r4, [r9, #-3653]	; 0xfffff1bb
80007818:	00000044 	andeq	r0, r0, r4, asr #32
8000781c:	455f5246 	ldrbmi	r5, [pc, #-582]	; 800075de <.LANCHOR3+0x22a>
80007820:	54534958 	ldrbpl	r4, [r3], #-2392	; 0xfffff6a8
80007824:	00000000 	andeq	r0, r0, r0
80007828:	525f5246 	subspl	r5, r15, #1610612740	; 0x60000004
8000782c:	52455f57 	subpl	r5, r5, #348	; 0x15c
80007830:	00524f52 	subseq	r4, r2, r2, asr r15
80007834:	575f5246 	ldrbpl	r5, [r15, -r6, asr #4]
80007838:	45544952 	ldrbmi	r4, [r4, #-2386]	; 0xfffff6ae
8000783c:	4f52505f 	svcmi	0x0052505f
80007840:	54434554 	strbpl	r4, [r3], #-1364	; 0xfffffaac
80007844:	00004445 	andeq	r4, r0, r5, asr #8
80007848:	4e5f5246 	cdpmi	2, 5, cr5, cr15, cr6, {2}
8000784c:	455f544f 	ldrbmi	r5, [pc, #-1103]	; 80007405 <.LANCHOR3+0x51>
80007850:	4c42414e 	stfmie	f4, [r2], {78}	; 0x4e
80007854:	00004445 	andeq	r4, r0, r5, asr #8
80007858:	4e5f5246 	cdpmi	2, 5, cr5, cr15, cr6, {2}
8000785c:	49465f4f 	stmdbmi	r6, {r0, r1, r2, r3, r6, r8, r9, r10, r11, r12, r14}^
80007860:	5953454c 	ldmdbpl	r3, {r2, r3, r6, r8, r10, r14}^
80007864:	4d455453 	cfstrdmi	mvd5, [r5, #-332]	; 0xfffffeb4
80007868:	00000000 	andeq	r0, r0, r0
8000786c:	495f5246 	ldmdbmi	r15, {r1, r2, r6, r9, r12, r14}^	; <UNPREDICTABLE>
80007870:	4c41564e 	mcrrmi	6, 4, r5, r1, cr14
80007874:	4f5f4449 	svcmi	0x005f4449
80007878:	43454a42 	movtmi	r4, #23106	; 0x5a42
8000787c:	00000054 	andeq	r0, r0, r4, asr r0
80007880:	4d5f5246 	lfmmi	f5, 2, [r15, #-280]	; 80007770 <.LANCHOR3+0x3bc>
80007884:	5f53464b 	svcpl	0x0053464b
80007888:	524f4241 	subpl	r4, r15, #268435460	; 0x10000004
8000788c:	00444554 	subeq	r4, r4, r4, asr r5
80007890:	656c500a 	strbvs	r5, [r12, #-10]!
80007894:	20657361 	rsbcs	r7, r5, r1, ror #6
80007898:	65736e69 	ldrbvs	r6, [r3, #-3689]!	; 0xfffff197
8000789c:	63207472 	teqvs	r0, #1912602624	; 0x72000000
800078a0:	2e647261 	cdpcs	2, 6, cr7, cr4, cr1, {3}
800078a4:	00202e2e 	eoreq	r2, r0, r14, lsr #28
800078a8:	00082008 	andeq	r2, r8, r8
800078ac:	00006325 	andeq	r6, r0, r5, lsr #6
800078b0:	65746e45 	ldrbvs	r6, [r4, #-3653]!	; 0xfffff1bb
800078b4:	203f2072 	eorscs	r2, r15, r2, ror r0	; <UNPREDICTABLE>
800078b8:	20726f66 	rsbscs	r6, r2, r6, ror #30
800078bc:	706c6568 	rsbvc	r6, r12, r8, ror #10
800078c0:	0000000a 	andeq	r0, r0, r10

Disassembly of section .data:

800078c4 <CwdBuf>:
800078c4:	0000002f 	andeq	r0, r0, r15, lsr #32
	...

80007ac4 <CmdTable>:
80007ac4:	80007618 	andhi	r7, r0, r8, lsl r6
80007ac8:	80005d88 	andhi	r5, r0, r8, lsl #27
80007acc:	800075e8 	andhi	r7, r0, r8, ror #11
80007ad0:	80007604 	andhi	r7, r0, r4, lsl #12
80007ad4:	80005d88 	andhi	r5, r0, r8, lsl #27
80007ad8:	80007608 	andhi	r7, r0, r8, lsl #12
80007adc:	80007620 	andhi	r7, r0, r0, lsr #12
80007ae0:	80005d88 	andhi	r5, r0, r8, lsl #27
80007ae4:	80007608 	andhi	r7, r0, r8, lsl #12
80007ae8:	80007624 	andhi	r7, r0, r4, lsr #12
80007aec:	80006538 	andhi	r6, r0, r8, lsr r5
80007af0:	80007628 	andhi	r7, r0, r8, lsr #12
80007af4:	80007644 	andhi	r7, r0, r4, asr #12
80007af8:	80005f5c 	andhi	r5, r0, r12, asr r15
80007afc:	8000764c 	andhi	r7, r0, r12, asr #12
80007b00:	80007660 	andhi	r7, r0, r0, ror #12
80007b04:	800060ec 	andhi	r6, r0, r12, ror #1
80007b08:	80007668 	andhi	r7, r0, r8, ror #12
80007b0c:	8000767c 	andhi	r7, r0, r12, ror r6
80007b10:	80005f5c 	andhi	r5, r0, r12, asr r15
80007b14:	80007680 	andhi	r7, r0, r0, lsl #13
80007b18:	80007698 	mulhi	r0, r8, r6
80007b1c:	80005d68 	andhi	r5, r0, r8, ror #26
80007b20:	8000769c 	mulhi	r0, r12, r6
80007b24:	800076c0 	andhi	r7, r0, r0, asr #13
80007b28:	80006200 	andhi	r6, r0, r0, lsl #4
80007b2c:	800076c4 	andhi	r7, r0, r4, asr #13
80007b30:	8000778c 	andhi	r7, r0, r12, lsl #15
80007b34:	80005de0 	andhi	r5, r0, r0, ror #27
80007b38:	80007790 	mulhi	r0, r0, r7
	...

80007b48 <WrBufPath>:
80007b48:	0000002f 	andeq	r0, r0, r15, lsr #32
	...

80007d48 <FResultStrings>:
80007d48:	00000000 	andeq	r0, r0, r0
80007d4c:	800077bc 			; <UNDEFINED> instruction: 0x800077bc
80007d50:	00000001 	andeq	r0, r0, r1
80007d54:	800077c4 	andhi	r7, r0, r4, asr #15
80007d58:	00000002 	andeq	r0, r0, r2
80007d5c:	800077d4 	ldrdhi	r7, [r0], -r4
80007d60:	00000003 	andeq	r0, r0, r3
80007d64:	800077e0 	andhi	r7, r0, r0, ror #15
80007d68:	00000004 	andeq	r0, r0, r4
80007d6c:	800077ec 	andhi	r7, r0, r12, ror #15
80007d70:	00000005 	andeq	r0, r0, r5
80007d74:	800077fc 	strdhi	r7, [r0], -r12
80007d78:	00000006 	andeq	r0, r0, r6
80007d7c:	80007810 	andhi	r7, r0, r0, lsl r8
80007d80:	00000007 	andeq	r0, r0, r7
80007d84:	8000781c 	andhi	r7, r0, r12, lsl r8
80007d88:	00000008 	andeq	r0, r0, r8
80007d8c:	80007828 	andhi	r7, r0, r8, lsr #16
80007d90:	00000009 	andeq	r0, r0, r9
80007d94:	80007834 	andhi	r7, r0, r4, lsr r8
80007d98:	0000000a 	andeq	r0, r0, r10
80007d9c:	80007848 	andhi	r7, r0, r8, asr #16
80007da0:	0000000b 	andeq	r0, r0, r11
80007da4:	80007858 	andhi	r7, r0, r8, asr r8
80007da8:	0000000c 	andeq	r0, r0, r12
80007dac:	8000786c 	andhi	r7, r0, r12, ror #16
80007db0:	0000000d 	andeq	r0, r0, r13
80007db4:	80007880 	andhi	r7, r0, r0, lsl #17

80007db8 <consoleUART>:
80007db8:	44e09000 	strbtmi	r9, [r0], #0

80007dbc <sdBlkSize>:
80007dbc:	00000200 	andeq	r0, r0, r0, lsl #4

Disassembly of section .bss:

80008000 <__bss_start__>:
	...

8000c000 <dataBuffer>:
	...

8000c080 <FatFs>:
	...

8000c088 <fsid>:
	...

8000c100 <TmpBufPath>:
	...

8000c300 <DirObject>:
	...

8000c380 <DataBufRW>:
	...

8001c0c0 <.LANCHOR2>:
	...

8001c380 <FileObject>:
	...

8001c600 <fileObjectWrite>:
	...

8001c848 <FileInfoObject>:
	...

8001c880 <FatFsObj>:
	...

8001cac0 <argv.4708>:
	...

8001cb00 <callbackOccured>:
8001cb00:	00000000 	andeq	r0, r0, r0

8001cb04 <cmdCompFlag>:
8001cb04:	00000000 	andeq	r0, r0, r0

8001cb08 <cmdTimeout>:
8001cb08:	00000000 	andeq	r0, r0, r0

8001cb0c <xferCompFlag>:
8001cb0c:	00000000 	andeq	r0, r0, r0

8001cb10 <dataTimeout>:
8001cb10:	00000000 	andeq	r0, r0, r0

8001cb14 <cb_Fxn>:
	...

8001cc14 <errFlag>:
8001cc14:	00000000 	andeq	r0, r0, r0

8001cc18 <CmdBuf>:
	...

8001ce18 <uart0_irq_old>:
	...

8001ce80 <data>:
	...

8001d080 <regionId>:
8001d080:	00000000 	andeq	r0, r0, r0

8001d084 <fat_devices>:
	...

8001d09c <sdCard>:
	...

8001d0e4 <ctrlInfo>:
	...

8001d110 <CmdBufIdx>:
	...

Disassembly of section .ARM.attributes:

00000000 <.ARM.attributes>:
   0:	00003841 	andeq	r3, r0, r1, asr #16
   4:	61656100 	cmnvs	r5, r0, lsl #2
   8:	01006962 	tsteq	r0, r2, ror #18
   c:	0000002e 	andeq	r0, r0, r14, lsr #32
  10:	726f4305 	rsbvc	r4, r15, #335544320	; 0x14000000
  14:	2d786574 	cfldr64cs	mvdx6, [r8, #-464]!	; 0xfffffe30
  18:	06003841 	streq	r3, [r0], -r1, asr #16
  1c:	0841070a 	stmdaeq	r1, {r1, r3, r8, r9, r10}^
  20:	0a020901 	beq	8242c <MMC_CMD_RSP_TYPE+0x5242c>
  24:	14041202 	strne	r1, [r4], #-514	; 0xfffffdfe
  28:	17011501 	strne	r1, [r1, -r1, lsl #10]
  2c:	1a011803 	bne	46040 <MMC_CMD_RSP_TYPE+0x16040>
  30:	1c031b02 	stcne	11, cr1, [r3], {2}
  34:	44012201 	strmi	r2, [r1], #-513	; 0xfffffdff
  38:	Address 0x00000038 is out of bounds.


Disassembly of section .comment:

00000000 <.comment>:
   0:	3a434347 	bcc	10d0d24 <MMC_HCTL_IWE+0xd0d24>
   4:	61522820 	cmpvs	r2, r0, lsr #16
   8:	69627073 	stmdbvs	r2!, {r0, r1, r4, r5, r6, r12, r13, r14}^
   c:	34206e61 	strtcc	r6, [r0], #-3681	; 0xfffff19f
  10:	322e392e 	eorcc	r3, r14, #753664	; 0xb8000
  14:	2930312d 	ldmdbcs	r0!, {r0, r2, r3, r5, r8, r12, r13}
  18:	392e3420 	stmdbcc	r14!, {r5, r10, r12, r13}
  1c:	Address 0x0000001c is out of bounds.

